Archive member included to satisfy reference by file (symbol)

/opt/Xuantie-900-gcc-elf-newlib-x86_64-V2.8.1/bin/../lib/gcc/riscv64-unknown-elf/10.4.0/../../../../riscv64-unknown-elf/lib/rv64imafdc/lp64d/libc.a(lib_a-atoi.o)
                              build/kernel/components/drivers/pin/pin.o (atoi)
/opt/Xuantie-900-gcc-elf-newlib-x86_64-V2.8.1/bin/../lib/gcc/riscv64-unknown-elf/10.4.0/../../../../riscv64-unknown-elf/lib/rv64imafdc/lp64d/libc.a(lib_a-ctype_.o)
                              build/kernel/components/libc/compilers/common/cstring.o (_ctype_)
/opt/Xuantie-900-gcc-elf-newlib-x86_64-V2.8.1/bin/../lib/gcc/riscv64-unknown-elf/10.4.0/../../../../riscv64-unknown-elf/lib/rv64imafdc/lp64d/libc.a(lib_a-malloc.o)
                              build/kernel/components/libc/compilers/common/cstring.o (malloc)
/opt/Xuantie-900-gcc-elf-newlib-x86_64-V2.8.1/bin/../lib/gcc/riscv64-unknown-elf/10.4.0/../../../../riscv64-unknown-elf/lib/rv64imafdc/lp64d/libc.a(lib_a-memcmp.o)
                              build/kernel/components/finsh/shell.o (memcmp)
/opt/Xuantie-900-gcc-elf-newlib-x86_64-V2.8.1/bin/../lib/gcc/riscv64-unknown-elf/10.4.0/../../../../riscv64-unknown-elf/lib/rv64imafdc/lp64d/libc.a(lib_a-memset.o)
                              build/board/board.o (memset)
/opt/Xuantie-900-gcc-elf-newlib-x86_64-V2.8.1/bin/../lib/gcc/riscv64-unknown-elf/10.4.0/../../../../riscv64-unknown-elf/lib/rv64imafdc/lp64d/libc.a(lib_a-printf.o)
                              build/board/trap_c.o (printf)
/opt/Xuantie-900-gcc-elf-newlib-x86_64-V2.8.1/bin/../lib/gcc/riscv64-unknown-elf/10.4.0/../../../../riscv64-unknown-elf/lib/rv64imafdc/lp64d/libc.a(lib_a-strchr.o)
                              build/kernel/components/libc/compilers/common/cstring.o (strchr)
/opt/Xuantie-900-gcc-elf-newlib-x86_64-V2.8.1/bin/../lib/gcc/riscv64-unknown-elf/10.4.0/../../../../riscv64-unknown-elf/lib/rv64imafdc/lp64d/libc.a(lib_a-strcmp.o)
                              build/kernel/components/finsh/msh.o (strcmp)
/opt/Xuantie-900-gcc-elf-newlib-x86_64-V2.8.1/bin/../lib/gcc/riscv64-unknown-elf/10.4.0/../../../../riscv64-unknown-elf/lib/rv64imafdc/lp64d/libc.a(lib_a-strcpy.o)
                              build/kernel/components/libc/compilers/common/cstring.o (strcpy)
/opt/Xuantie-900-gcc-elf-newlib-x86_64-V2.8.1/bin/../lib/gcc/riscv64-unknown-elf/10.4.0/../../../../riscv64-unknown-elf/lib/rv64imafdc/lp64d/libc.a(lib_a-strlen.o)
                              build/kernel/components/libc/compilers/common/cstring.o (strlen)
/opt/Xuantie-900-gcc-elf-newlib-x86_64-V2.8.1/bin/../lib/gcc/riscv64-unknown-elf/10.4.0/../../../../riscv64-unknown-elf/lib/rv64imafdc/lp64d/libc.a(lib_a-strncmp.o)
                              build/kernel/components/finsh/msh.o (strncmp)
/opt/Xuantie-900-gcc-elf-newlib-x86_64-V2.8.1/bin/../lib/gcc/riscv64-unknown-elf/10.4.0/../../../../riscv64-unknown-elf/lib/rv64imafdc/lp64d/libc.a(lib_a-strncpy.o)
                              build/kernel/components/finsh/msh.o (strncpy)
/opt/Xuantie-900-gcc-elf-newlib-x86_64-V2.8.1/bin/../lib/gcc/riscv64-unknown-elf/10.4.0/../../../../riscv64-unknown-elf/lib/rv64imafdc/lp64d/libc.a(lib_a-strrchr.o)
                              build/kernel/components/libc/compilers/common/cstring.o (strrchr)
/opt/Xuantie-900-gcc-elf-newlib-x86_64-V2.8.1/bin/../lib/gcc/riscv64-unknown-elf/10.4.0/../../../../riscv64-unknown-elf/lib/rv64imafdc/lp64d/libc.a(lib_a-strtol.o)
                              /opt/Xuantie-900-gcc-elf-newlib-x86_64-V2.8.1/bin/../lib/gcc/riscv64-unknown-elf/10.4.0/../../../../riscv64-unknown-elf/lib/rv64imafdc/lp64d/libc.a(lib_a-atoi.o) (_strtol_r)
/opt/Xuantie-900-gcc-elf-newlib-x86_64-V2.8.1/bin/../lib/gcc/riscv64-unknown-elf/10.4.0/../../../../riscv64-unknown-elf/lib/rv64imafdc/lp64d/libc.a(lib_a-strtoul.o)
                              build/kernel/src/kservice.o (strtoul)
/opt/Xuantie-900-gcc-elf-newlib-x86_64-V2.8.1/bin/../lib/gcc/riscv64-unknown-elf/10.4.0/../../../../riscv64-unknown-elf/lib/rv64imafdc/lp64d/libc.a(lib_a-vfprintf.o)
                              /opt/Xuantie-900-gcc-elf-newlib-x86_64-V2.8.1/bin/../lib/gcc/riscv64-unknown-elf/10.4.0/../../../../riscv64-unknown-elf/lib/rv64imafdc/lp64d/libc.a(lib_a-printf.o) (_vfprintf_r)
/opt/Xuantie-900-gcc-elf-newlib-x86_64-V2.8.1/bin/../lib/gcc/riscv64-unknown-elf/10.4.0/../../../../riscv64-unknown-elf/lib/rv64imafdc/lp64d/libc.a(lib_a-wsetup.o)
                              /opt/Xuantie-900-gcc-elf-newlib-x86_64-V2.8.1/bin/../lib/gcc/riscv64-unknown-elf/10.4.0/../../../../riscv64-unknown-elf/lib/rv64imafdc/lp64d/libc.a(lib_a-vfprintf.o) (__swsetup_r)
/opt/Xuantie-900-gcc-elf-newlib-x86_64-V2.8.1/bin/../lib/gcc/riscv64-unknown-elf/10.4.0/../../../../riscv64-unknown-elf/lib/rv64imafdc/lp64d/libc.a(lib_a-fflush.o)
                              /opt/Xuantie-900-gcc-elf-newlib-x86_64-V2.8.1/bin/../lib/gcc/riscv64-unknown-elf/10.4.0/../../../../riscv64-unknown-elf/lib/rv64imafdc/lp64d/libc.a(lib_a-vfprintf.o) (_fflush_r)
/opt/Xuantie-900-gcc-elf-newlib-x86_64-V2.8.1/bin/../lib/gcc/riscv64-unknown-elf/10.4.0/../../../../riscv64-unknown-elf/lib/rv64imafdc/lp64d/libc.a(lib_a-findfp.o)
                              /opt/Xuantie-900-gcc-elf-newlib-x86_64-V2.8.1/bin/../lib/gcc/riscv64-unknown-elf/10.4.0/../../../../riscv64-unknown-elf/lib/rv64imafdc/lp64d/libc.a(lib_a-vfprintf.o) (__sinit)
/opt/Xuantie-900-gcc-elf-newlib-x86_64-V2.8.1/bin/../lib/gcc/riscv64-unknown-elf/10.4.0/../../../../riscv64-unknown-elf/lib/rv64imafdc/lp64d/libc.a(lib_a-fwalk.o)
                              /opt/Xuantie-900-gcc-elf-newlib-x86_64-V2.8.1/bin/../lib/gcc/riscv64-unknown-elf/10.4.0/../../../../riscv64-unknown-elf/lib/rv64imafdc/lp64d/libc.a(lib_a-findfp.o) (_fwalk)
/opt/Xuantie-900-gcc-elf-newlib-x86_64-V2.8.1/bin/../lib/gcc/riscv64-unknown-elf/10.4.0/../../../../riscv64-unknown-elf/lib/rv64imafdc/lp64d/libc.a(lib_a-impure.o)
                              /opt/Xuantie-900-gcc-elf-newlib-x86_64-V2.8.1/bin/../lib/gcc/riscv64-unknown-elf/10.4.0/../../../../riscv64-unknown-elf/lib/rv64imafdc/lp64d/libc.a(lib_a-fflush.o) (_global_impure_ptr)
/opt/Xuantie-900-gcc-elf-newlib-x86_64-V2.8.1/bin/../lib/gcc/riscv64-unknown-elf/10.4.0/../../../../riscv64-unknown-elf/lib/rv64imafdc/lp64d/libc.a(lib_a-ldtoa.o)
                              /opt/Xuantie-900-gcc-elf-newlib-x86_64-V2.8.1/bin/../lib/gcc/riscv64-unknown-elf/10.4.0/../../../../riscv64-unknown-elf/lib/rv64imafdc/lp64d/libc.a(lib_a-vfprintf.o) (_ldtoa_r)
/opt/Xuantie-900-gcc-elf-newlib-x86_64-V2.8.1/bin/../lib/gcc/riscv64-unknown-elf/10.4.0/../../../../riscv64-unknown-elf/lib/rv64imafdc/lp64d/libc.a(lib_a-localeconv.o)
                              /opt/Xuantie-900-gcc-elf-newlib-x86_64-V2.8.1/bin/../lib/gcc/riscv64-unknown-elf/10.4.0/../../../../riscv64-unknown-elf/lib/rv64imafdc/lp64d/libc.a(lib_a-vfprintf.o) (_localeconv_r)
/opt/Xuantie-900-gcc-elf-newlib-x86_64-V2.8.1/bin/../lib/gcc/riscv64-unknown-elf/10.4.0/../../../../riscv64-unknown-elf/lib/rv64imafdc/lp64d/libc.a(lib_a-lock.o)
                              /opt/Xuantie-900-gcc-elf-newlib-x86_64-V2.8.1/bin/../lib/gcc/riscv64-unknown-elf/10.4.0/../../../../riscv64-unknown-elf/lib/rv64imafdc/lp64d/libc.a(lib_a-vfprintf.o) (__retarget_lock_init_recursive)
/opt/Xuantie-900-gcc-elf-newlib-x86_64-V2.8.1/bin/../lib/gcc/riscv64-unknown-elf/10.4.0/../../../../riscv64-unknown-elf/lib/rv64imafdc/lp64d/libc.a(lib_a-makebuf.o)
                              /opt/Xuantie-900-gcc-elf-newlib-x86_64-V2.8.1/bin/../lib/gcc/riscv64-unknown-elf/10.4.0/../../../../riscv64-unknown-elf/lib/rv64imafdc/lp64d/libc.a(lib_a-wsetup.o) (__smakebuf_r)
/opt/Xuantie-900-gcc-elf-newlib-x86_64-V2.8.1/bin/../lib/gcc/riscv64-unknown-elf/10.4.0/../../../../riscv64-unknown-elf/lib/rv64imafdc/lp64d/libc.a(lib_a-memchr.o)
                              /opt/Xuantie-900-gcc-elf-newlib-x86_64-V2.8.1/bin/../lib/gcc/riscv64-unknown-elf/10.4.0/../../../../riscv64-unknown-elf/lib/rv64imafdc/lp64d/libc.a(lib_a-vfprintf.o) (memchr)
/opt/Xuantie-900-gcc-elf-newlib-x86_64-V2.8.1/bin/../lib/gcc/riscv64-unknown-elf/10.4.0/../../../../riscv64-unknown-elf/lib/rv64imafdc/lp64d/libc.a(lib_a-mprec.o)
                              /opt/Xuantie-900-gcc-elf-newlib-x86_64-V2.8.1/bin/../lib/gcc/riscv64-unknown-elf/10.4.0/../../../../riscv64-unknown-elf/lib/rv64imafdc/lp64d/libc.a(lib_a-ldtoa.o) (_Balloc)
/opt/Xuantie-900-gcc-elf-newlib-x86_64-V2.8.1/bin/../lib/gcc/riscv64-unknown-elf/10.4.0/../../../../riscv64-unknown-elf/lib/rv64imafdc/lp64d/libc.a(lib_a-s_frexp.o)
                              /opt/Xuantie-900-gcc-elf-newlib-x86_64-V2.8.1/bin/../lib/gcc/riscv64-unknown-elf/10.4.0/../../../../riscv64-unknown-elf/lib/rv64imafdc/lp64d/libc.a(lib_a-vfprintf.o) (frexp)
/opt/Xuantie-900-gcc-elf-newlib-x86_64-V2.8.1/bin/../lib/gcc/riscv64-unknown-elf/10.4.0/../../../../riscv64-unknown-elf/lib/rv64imafdc/lp64d/libc.a(lib_a-sprintf.o)
                              /opt/Xuantie-900-gcc-elf-newlib-x86_64-V2.8.1/bin/../lib/gcc/riscv64-unknown-elf/10.4.0/../../../../riscv64-unknown-elf/lib/rv64imafdc/lp64d/libc.a(lib_a-ldtoa.o) (sprintf)
/opt/Xuantie-900-gcc-elf-newlib-x86_64-V2.8.1/bin/../lib/gcc/riscv64-unknown-elf/10.4.0/../../../../riscv64-unknown-elf/lib/rv64imafdc/lp64d/libc.a(lib_a-stdio.o)
                              /opt/Xuantie-900-gcc-elf-newlib-x86_64-V2.8.1/bin/../lib/gcc/riscv64-unknown-elf/10.4.0/../../../../riscv64-unknown-elf/lib/rv64imafdc/lp64d/libc.a(lib_a-findfp.o) (__sread)
/opt/Xuantie-900-gcc-elf-newlib-x86_64-V2.8.1/bin/../lib/gcc/riscv64-unknown-elf/10.4.0/../../../../riscv64-unknown-elf/lib/rv64imafdc/lp64d/libc.a(lib_a-svfprintf.o)
                              /opt/Xuantie-900-gcc-elf-newlib-x86_64-V2.8.1/bin/../lib/gcc/riscv64-unknown-elf/10.4.0/../../../../riscv64-unknown-elf/lib/rv64imafdc/lp64d/libc.a(lib_a-sprintf.o) (_svfprintf_r)
/opt/Xuantie-900-gcc-elf-newlib-x86_64-V2.8.1/bin/../lib/gcc/riscv64-unknown-elf/10.4.0/../../../../riscv64-unknown-elf/lib/rv64imafdc/lp64d/libc.a(lib_a-vfiprintf.o)
                              /opt/Xuantie-900-gcc-elf-newlib-x86_64-V2.8.1/bin/../lib/gcc/riscv64-unknown-elf/10.4.0/../../../../riscv64-unknown-elf/lib/rv64imafdc/lp64d/libc.a(lib_a-vfprintf.o) (__sprint_r)
/opt/Xuantie-900-gcc-elf-newlib-x86_64-V2.8.1/bin/../lib/gcc/riscv64-unknown-elf/10.4.0/../../../../riscv64-unknown-elf/lib/rv64imafdc/lp64d/libc.a(lib_a-assert.o)
                              /opt/Xuantie-900-gcc-elf-newlib-x86_64-V2.8.1/bin/../lib/gcc/riscv64-unknown-elf/10.4.0/../../../../riscv64-unknown-elf/lib/rv64imafdc/lp64d/libc.a(lib_a-mprec.o) (__assert_func)
/opt/Xuantie-900-gcc-elf-newlib-x86_64-V2.8.1/bin/../lib/gcc/riscv64-unknown-elf/10.4.0/../../../../riscv64-unknown-elf/lib/rv64imafdc/lp64d/libc.a(lib_a-fclose.o)
                              /opt/Xuantie-900-gcc-elf-newlib-x86_64-V2.8.1/bin/../lib/gcc/riscv64-unknown-elf/10.4.0/../../../../riscv64-unknown-elf/lib/rv64imafdc/lp64d/libc.a(lib_a-findfp.o) (_fclose_r)
/opt/Xuantie-900-gcc-elf-newlib-x86_64-V2.8.1/bin/../lib/gcc/riscv64-unknown-elf/10.4.0/../../../../riscv64-unknown-elf/lib/rv64imafdc/lp64d/libc.a(lib_a-fiprintf.o)
                              /opt/Xuantie-900-gcc-elf-newlib-x86_64-V2.8.1/bin/../lib/gcc/riscv64-unknown-elf/10.4.0/../../../../riscv64-unknown-elf/lib/rv64imafdc/lp64d/libc.a(lib_a-assert.o) (fiprintf)
/opt/Xuantie-900-gcc-elf-newlib-x86_64-V2.8.1/bin/../lib/gcc/riscv64-unknown-elf/10.4.0/../../../../riscv64-unknown-elf/lib/rv64imafdc/lp64d/libc.a(lib_a-fputwc.o)
                              /opt/Xuantie-900-gcc-elf-newlib-x86_64-V2.8.1/bin/../lib/gcc/riscv64-unknown-elf/10.4.0/../../../../riscv64-unknown-elf/lib/rv64imafdc/lp64d/libc.a(lib_a-vfiprintf.o) (_fputwc_r)
/opt/Xuantie-900-gcc-elf-newlib-x86_64-V2.8.1/bin/../lib/gcc/riscv64-unknown-elf/10.4.0/../../../../riscv64-unknown-elf/lib/rv64imafdc/lp64d/libc.a(lib_a-fvwrite.o)
                              /opt/Xuantie-900-gcc-elf-newlib-x86_64-V2.8.1/bin/../lib/gcc/riscv64-unknown-elf/10.4.0/../../../../riscv64-unknown-elf/lib/rv64imafdc/lp64d/libc.a(lib_a-vfiprintf.o) (__sfvwrite_r)
/opt/Xuantie-900-gcc-elf-newlib-x86_64-V2.8.1/bin/../lib/gcc/riscv64-unknown-elf/10.4.0/../../../../riscv64-unknown-elf/lib/rv64imafdc/lp64d/libc.a(lib_a-locale.o)
                              /opt/Xuantie-900-gcc-elf-newlib-x86_64-V2.8.1/bin/../lib/gcc/riscv64-unknown-elf/10.4.0/../../../../riscv64-unknown-elf/lib/rv64imafdc/lp64d/libc.a(lib_a-fputwc.o) (__locale_mb_cur_max)
/opt/Xuantie-900-gcc-elf-newlib-x86_64-V2.8.1/bin/../lib/gcc/riscv64-unknown-elf/10.4.0/../../../../riscv64-unknown-elf/lib/rv64imafdc/lp64d/libc.a(lib_a-mbtowc_r.o)
                              /opt/Xuantie-900-gcc-elf-newlib-x86_64-V2.8.1/bin/../lib/gcc/riscv64-unknown-elf/10.4.0/../../../../riscv64-unknown-elf/lib/rv64imafdc/lp64d/libc.a(lib_a-locale.o) (__ascii_mbtowc)
/opt/Xuantie-900-gcc-elf-newlib-x86_64-V2.8.1/bin/../lib/gcc/riscv64-unknown-elf/10.4.0/../../../../riscv64-unknown-elf/lib/rv64imafdc/lp64d/libc.a(lib_a-memcpy-asm.o)
                              /opt/Xuantie-900-gcc-elf-newlib-x86_64-V2.8.1/bin/../lib/gcc/riscv64-unknown-elf/10.4.0/../../../../riscv64-unknown-elf/lib/rv64imafdc/lp64d/libc.a(lib_a-mprec.o) (memcpy)
/opt/Xuantie-900-gcc-elf-newlib-x86_64-V2.8.1/bin/../lib/gcc/riscv64-unknown-elf/10.4.0/../../../../riscv64-unknown-elf/lib/rv64imafdc/lp64d/libc.a(lib_a-memmove-stub.o)
                              /opt/Xuantie-900-gcc-elf-newlib-x86_64-V2.8.1/bin/../lib/gcc/riscv64-unknown-elf/10.4.0/../../../../riscv64-unknown-elf/lib/rv64imafdc/lp64d/libc.a(lib_a-fvwrite.o) (memmove)
/opt/Xuantie-900-gcc-elf-newlib-x86_64-V2.8.1/bin/../lib/gcc/riscv64-unknown-elf/10.4.0/../../../../riscv64-unknown-elf/lib/rv64imafdc/lp64d/libc.a(lib_a-svfiprintf.o)
                              /opt/Xuantie-900-gcc-elf-newlib-x86_64-V2.8.1/bin/../lib/gcc/riscv64-unknown-elf/10.4.0/../../../../riscv64-unknown-elf/lib/rv64imafdc/lp64d/libc.a(lib_a-svfprintf.o) (__ssprint_r)
/opt/Xuantie-900-gcc-elf-newlib-x86_64-V2.8.1/bin/../lib/gcc/riscv64-unknown-elf/10.4.0/../../../../riscv64-unknown-elf/lib/rv64imafdc/lp64d/libc.a(lib_a-wbuf.o)
                              /opt/Xuantie-900-gcc-elf-newlib-x86_64-V2.8.1/bin/../lib/gcc/riscv64-unknown-elf/10.4.0/../../../../riscv64-unknown-elf/lib/rv64imafdc/lp64d/libc.a(lib_a-fputwc.o) (__swbuf_r)
/opt/Xuantie-900-gcc-elf-newlib-x86_64-V2.8.1/bin/../lib/gcc/riscv64-unknown-elf/10.4.0/../../../../riscv64-unknown-elf/lib/rv64imafdc/lp64d/libc.a(lib_a-wcrtomb.o)
                              /opt/Xuantie-900-gcc-elf-newlib-x86_64-V2.8.1/bin/../lib/gcc/riscv64-unknown-elf/10.4.0/../../../../riscv64-unknown-elf/lib/rv64imafdc/lp64d/libc.a(lib_a-fputwc.o) (_wcrtomb_r)
/opt/Xuantie-900-gcc-elf-newlib-x86_64-V2.8.1/bin/../lib/gcc/riscv64-unknown-elf/10.4.0/../../../../riscv64-unknown-elf/lib/rv64imafdc/lp64d/libc.a(lib_a-wctomb_r.o)
                              /opt/Xuantie-900-gcc-elf-newlib-x86_64-V2.8.1/bin/../lib/gcc/riscv64-unknown-elf/10.4.0/../../../../riscv64-unknown-elf/lib/rv64imafdc/lp64d/libc.a(lib_a-locale.o) (__ascii_wctomb)
/opt/Xuantie-900-gcc-elf-newlib-x86_64-V2.8.1/bin/../lib/gcc/riscv64-unknown-elf/10.4.0/../../../../riscv64-unknown-elf/lib/rv64imafdc/lp64d/libc.a(lib_a-abort.o)
                              /opt/Xuantie-900-gcc-elf-newlib-x86_64-V2.8.1/bin/../lib/gcc/riscv64-unknown-elf/10.4.0/../../../../riscv64-unknown-elf/lib/rv64imafdc/lp64d/libc.a(lib_a-assert.o) (abort)
/opt/Xuantie-900-gcc-elf-newlib-x86_64-V2.8.1/bin/../lib/gcc/riscv64-unknown-elf/10.4.0/../../../../riscv64-unknown-elf/lib/rv64imafdc/lp64d/libc.a(lib_a-signal.o)
                              /opt/Xuantie-900-gcc-elf-newlib-x86_64-V2.8.1/bin/../lib/gcc/riscv64-unknown-elf/10.4.0/../../../../riscv64-unknown-elf/lib/rv64imafdc/lp64d/libc.a(lib_a-abort.o) (raise)
/opt/Xuantie-900-gcc-elf-newlib-x86_64-V2.8.1/bin/../lib/gcc/riscv64-unknown-elf/10.4.0/rv64imafdc/lp64d/libgcc.a(eqtf2.o)
                              /opt/Xuantie-900-gcc-elf-newlib-x86_64-V2.8.1/bin/../lib/gcc/riscv64-unknown-elf/10.4.0/../../../../riscv64-unknown-elf/lib/rv64imafdc/lp64d/libc.a(lib_a-vfprintf.o) (__eqtf2)
/opt/Xuantie-900-gcc-elf-newlib-x86_64-V2.8.1/bin/../lib/gcc/riscv64-unknown-elf/10.4.0/rv64imafdc/lp64d/libgcc.a(getf2.o)
                              /opt/Xuantie-900-gcc-elf-newlib-x86_64-V2.8.1/bin/../lib/gcc/riscv64-unknown-elf/10.4.0/../../../../riscv64-unknown-elf/lib/rv64imafdc/lp64d/libc.a(lib_a-vfprintf.o) (__gttf2)
/opt/Xuantie-900-gcc-elf-newlib-x86_64-V2.8.1/bin/../lib/gcc/riscv64-unknown-elf/10.4.0/rv64imafdc/lp64d/libgcc.a(letf2.o)
                              /opt/Xuantie-900-gcc-elf-newlib-x86_64-V2.8.1/bin/../lib/gcc/riscv64-unknown-elf/10.4.0/../../../../riscv64-unknown-elf/lib/rv64imafdc/lp64d/libc.a(lib_a-vfprintf.o) (__lttf2)
/opt/Xuantie-900-gcc-elf-newlib-x86_64-V2.8.1/bin/../lib/gcc/riscv64-unknown-elf/10.4.0/rv64imafdc/lp64d/libgcc.a(multf3.o)
                              /opt/Xuantie-900-gcc-elf-newlib-x86_64-V2.8.1/bin/../lib/gcc/riscv64-unknown-elf/10.4.0/../../../../riscv64-unknown-elf/lib/rv64imafdc/lp64d/libc.a(lib_a-vfprintf.o) (__multf3)
/opt/Xuantie-900-gcc-elf-newlib-x86_64-V2.8.1/bin/../lib/gcc/riscv64-unknown-elf/10.4.0/rv64imafdc/lp64d/libgcc.a(subtf3.o)
                              /opt/Xuantie-900-gcc-elf-newlib-x86_64-V2.8.1/bin/../lib/gcc/riscv64-unknown-elf/10.4.0/../../../../riscv64-unknown-elf/lib/rv64imafdc/lp64d/libc.a(lib_a-vfprintf.o) (__subtf3)
/opt/Xuantie-900-gcc-elf-newlib-x86_64-V2.8.1/bin/../lib/gcc/riscv64-unknown-elf/10.4.0/rv64imafdc/lp64d/libgcc.a(fixtfsi.o)
                              /opt/Xuantie-900-gcc-elf-newlib-x86_64-V2.8.1/bin/../lib/gcc/riscv64-unknown-elf/10.4.0/../../../../riscv64-unknown-elf/lib/rv64imafdc/lp64d/libc.a(lib_a-vfprintf.o) (__fixtfsi)
/opt/Xuantie-900-gcc-elf-newlib-x86_64-V2.8.1/bin/../lib/gcc/riscv64-unknown-elf/10.4.0/rv64imafdc/lp64d/libgcc.a(floatsitf.o)
                              /opt/Xuantie-900-gcc-elf-newlib-x86_64-V2.8.1/bin/../lib/gcc/riscv64-unknown-elf/10.4.0/../../../../riscv64-unknown-elf/lib/rv64imafdc/lp64d/libc.a(lib_a-vfprintf.o) (__floatsitf)
/opt/Xuantie-900-gcc-elf-newlib-x86_64-V2.8.1/bin/../lib/gcc/riscv64-unknown-elf/10.4.0/rv64imafdc/lp64d/libgcc.a(extenddftf2.o)
                              /opt/Xuantie-900-gcc-elf-newlib-x86_64-V2.8.1/bin/../lib/gcc/riscv64-unknown-elf/10.4.0/../../../../riscv64-unknown-elf/lib/rv64imafdc/lp64d/libc.a(lib_a-vfprintf.o) (__extenddftf2)
/opt/Xuantie-900-gcc-elf-newlib-x86_64-V2.8.1/bin/../lib/gcc/riscv64-unknown-elf/10.4.0/rv64imafdc/lp64d/libgcc.a(trunctfdf2.o)
                              /opt/Xuantie-900-gcc-elf-newlib-x86_64-V2.8.1/bin/../lib/gcc/riscv64-unknown-elf/10.4.0/../../../../riscv64-unknown-elf/lib/rv64imafdc/lp64d/libc.a(lib_a-vfprintf.o) (__trunctfdf2)
/opt/Xuantie-900-gcc-elf-newlib-x86_64-V2.8.1/bin/../lib/gcc/riscv64-unknown-elf/10.4.0/rv64imafdc/lp64d/libgcc.a(_clzsi2.o)
                              /opt/Xuantie-900-gcc-elf-newlib-x86_64-V2.8.1/bin/../lib/gcc/riscv64-unknown-elf/10.4.0/rv64imafdc/lp64d/libgcc.a(multf3.o) (__clzdi2)
/opt/Xuantie-900-gcc-elf-newlib-x86_64-V2.8.1/bin/../lib/gcc/riscv64-unknown-elf/10.4.0/rv64imafdc/lp64d/libgcc.a(_clz.o)
                              /opt/Xuantie-900-gcc-elf-newlib-x86_64-V2.8.1/bin/../lib/gcc/riscv64-unknown-elf/10.4.0/rv64imafdc/lp64d/libgcc.a(_clzsi2.o) (__clz_tab)

Discarded input sections

 .text          0x0000000000000000        0x0 build/kernel/components/libc/compilers/common/cctype.o
 .data          0x0000000000000000        0x0 build/kernel/components/libc/compilers/common/cctype.o
 .bss           0x0000000000000000        0x0 build/kernel/components/libc/compilers/common/cctype.o
 .text.isascii  0x0000000000000000        0x6 build/kernel/components/libc/compilers/common/cctype.o
 .text.toascii  0x0000000000000000        0x6 build/kernel/components/libc/compilers/common/cctype.o
 .debug_info    0x0000000000000000       0xd5 build/kernel/components/libc/compilers/common/cctype.o
 .debug_abbrev  0x0000000000000000       0x75 build/kernel/components/libc/compilers/common/cctype.o
 .debug_loc     0x0000000000000000       0x72 build/kernel/components/libc/compilers/common/cctype.o
 .debug_aranges
                0x0000000000000000       0x40 build/kernel/components/libc/compilers/common/cctype.o
 .debug_ranges  0x0000000000000000       0x30 build/kernel/components/libc/compilers/common/cctype.o
 .debug_line    0x0000000000000000       0xb7 build/kernel/components/libc/compilers/common/cctype.o
 .debug_str     0x0000000000000000      0x186 build/kernel/components/libc/compilers/common/cctype.o
 .comment       0x0000000000000000       0x46 build/kernel/components/libc/compilers/common/cctype.o
 .debug_frame   0x0000000000000000       0x40 build/kernel/components/libc/compilers/common/cctype.o
 .riscv.attributes
                0x0000000000000000       0x35 build/kernel/components/libc/compilers/common/cctype.o
 .text          0x0000000000000000        0x0 build/kernel/components/libc/compilers/common/cstdlib.o
 .data          0x0000000000000000        0x0 build/kernel/components/libc/compilers/common/cstdlib.o
 .bss           0x0000000000000000        0x0 build/kernel/components/libc/compilers/common/cstdlib.o
 .text.system   0x0000000000000000       0x2c build/kernel/components/libc/compilers/common/cstdlib.o
 .text.ltoa     0x0000000000000000       0xaa build/kernel/components/libc/compilers/common/cstdlib.o
 .text.itoa     0x0000000000000000        0x8 build/kernel/components/libc/compilers/common/cstdlib.o
 .text.ultoa    0x0000000000000000       0x82 build/kernel/components/libc/compilers/common/cstdlib.o
 .text.utoa     0x0000000000000000        0xc build/kernel/components/libc/compilers/common/cstdlib.o
 .text          0x0000000000000000        0x0 build/kernel/components/libc/compilers/common/cstring.o
 .data          0x0000000000000000        0x0 build/kernel/components/libc/compilers/common/cstring.o
 .bss           0x0000000000000000        0x0 build/kernel/components/libc/compilers/common/cstring.o
 .text.bzero    0x0000000000000000        0xc build/kernel/components/libc/compilers/common/cstring.o
 .text.bcopy    0x0000000000000000        0xe build/kernel/components/libc/compilers/common/cstring.o
 .text.bcmp     0x0000000000000000        0x8 build/kernel/components/libc/compilers/common/cstring.o
 .text.explicit_bzero
                0x0000000000000000       0x10 build/kernel/components/libc/compilers/common/cstring.o
 .text.index    0x0000000000000000        0x8 build/kernel/components/libc/compilers/common/cstring.o
 .text.rindex   0x0000000000000000        0x8 build/kernel/components/libc/compilers/common/cstring.o
 .text.ffs      0x0000000000000000       0x1a build/kernel/components/libc/compilers/common/cstring.o
 .text.ffsl     0x0000000000000000       0x1e build/kernel/components/libc/compilers/common/cstring.o
 .text.ffsll    0x0000000000000000       0x1e build/kernel/components/libc/compilers/common/cstring.o
 .text.memrchr  0x0000000000000000       0x28 build/kernel/components/libc/compilers/common/cstring.o
 .text.strnlen  0x0000000000000000       0x26 build/kernel/components/libc/compilers/common/cstring.o
 .text.strchrnul
                0x0000000000000000       0x16 build/kernel/components/libc/compilers/common/cstring.o
 .text.strcasecmp
                0x0000000000000000       0x4c build/kernel/components/libc/compilers/common/cstring.o
 .text.strncasecmp
                0x0000000000000000       0x5c build/kernel/components/libc/compilers/common/cstring.o
 .text.strdup   0x0000000000000000       0x36 build/kernel/components/libc/compilers/common/cstring.o
 .text.strndup  0x0000000000000000       0x5a build/kernel/components/libc/compilers/common/cstring.o
 .text.strtok_r
                0x0000000000000000       0x92 build/kernel/components/libc/compilers/common/cstring.o
 .debug_info    0x0000000000000000      0x854 build/kernel/components/libc/compilers/common/cstring.o
 .debug_abbrev  0x0000000000000000      0x23a build/kernel/components/libc/compilers/common/cstring.o
 .debug_loc     0x0000000000000000      0xee7 build/kernel/components/libc/compilers/common/cstring.o
 .debug_aranges
                0x0000000000000000      0x120 build/kernel/components/libc/compilers/common/cstring.o
 .debug_ranges  0x0000000000000000      0x260 build/kernel/components/libc/compilers/common/cstring.o
 .debug_line    0x0000000000000000      0xb9b build/kernel/components/libc/compilers/common/cstring.o
 .debug_str     0x0000000000000000      0x29d build/kernel/components/libc/compilers/common/cstring.o
 .comment       0x0000000000000000       0x46 build/kernel/components/libc/compilers/common/cstring.o
 .debug_frame   0x0000000000000000      0x208 build/kernel/components/libc/compilers/common/cstring.o
 .riscv.attributes
                0x0000000000000000       0x35 build/kernel/components/libc/compilers/common/cstring.o
 .text          0x0000000000000000        0x0 build/kernel/components/libc/compilers/common/ctime.o
 .data          0x0000000000000000        0x0 build/kernel/components/libc/compilers/common/ctime.o
 .bss           0x0000000000000000        0x0 build/kernel/components/libc/compilers/common/ctime.o
 .text.rt_tz_set
                0x0000000000000000        0xa build/kernel/components/libc/compilers/common/ctime.o
 .text.rt_tz_get
                0x0000000000000000        0xa build/kernel/components/libc/compilers/common/ctime.o
 .text.rt_tz_is_dst
                0x0000000000000000        0x4 build/kernel/components/libc/compilers/common/ctime.o
 .text.gmtime_r
                0x0000000000000000      0x13c build/kernel/components/libc/compilers/common/ctime.o
 .text.gmtime   0x0000000000000000       0x10 build/kernel/components/libc/compilers/common/ctime.o
 .text.localtime_r
                0x0000000000000000       0x22 build/kernel/components/libc/compilers/common/ctime.o
 .text.localtime
                0x0000000000000000       0x2a build/kernel/components/libc/compilers/common/ctime.o
 .rodata.asctime_r.str1.8
                0x0000000000000000       0xb1 build/kernel/components/libc/compilers/common/ctime.o
 .text.asctime_r
                0x0000000000000000      0x290 build/kernel/components/libc/compilers/common/ctime.o
 .text.asctime  0x0000000000000000       0x10 build/kernel/components/libc/compilers/common/ctime.o
 .text.ctime_r  0x0000000000000000       0x34 build/kernel/components/libc/compilers/common/ctime.o
 .text.ctime    0x0000000000000000       0x38 build/kernel/components/libc/compilers/common/ctime.o
 .text.difftime
                0x0000000000000000        0x8 build/kernel/components/libc/compilers/common/ctime.o
 .text.time     0x0000000000000000       0x16 build/kernel/components/libc/compilers/common/ctime.o
 .text.clock    0x0000000000000000       0x16 build/kernel/components/libc/compilers/common/ctime.o
 .text.stime    0x0000000000000000       0x16 build/kernel/components/libc/compilers/common/ctime.o
 .text.timegm   0x0000000000000000      0x220 build/kernel/components/libc/compilers/common/ctime.o
 .text.mktime   0x0000000000000000       0x1c build/kernel/components/libc/compilers/common/ctime.o
 .text.gettimeofday
                0x0000000000000000       0x2e build/kernel/components/libc/compilers/common/ctime.o
 .text.settimeofday
                0x0000000000000000       0x16 build/kernel/components/libc/compilers/common/ctime.o
 .bss.buf.0     0x0000000000000000       0x1a build/kernel/components/libc/compilers/common/ctime.o
 .bss.tmp.1     0x0000000000000000       0x24 build/kernel/components/libc/compilers/common/ctime.o
 .bss.tmp.2     0x0000000000000000       0x24 build/kernel/components/libc/compilers/common/ctime.o
 .rodata.__spm  0x0000000000000000       0x1a build/kernel/components/libc/compilers/common/ctime.o
 .sdata._current_tz_offset_sec
                0x0000000000000000        0x4 build/kernel/components/libc/compilers/common/ctime.o
 .debug_info    0x0000000000000000      0xe92 build/kernel/components/libc/compilers/common/ctime.o
 .debug_abbrev  0x0000000000000000      0x3a8 build/kernel/components/libc/compilers/common/ctime.o
 .debug_loc     0x0000000000000000      0xe9b build/kernel/components/libc/compilers/common/ctime.o
 .debug_aranges
                0x0000000000000000      0x150 build/kernel/components/libc/compilers/common/ctime.o
 .debug_ranges  0x0000000000000000      0x7b0 build/kernel/components/libc/compilers/common/ctime.o
 .debug_line    0x0000000000000000     0x17a7 build/kernel/components/libc/compilers/common/ctime.o
 .debug_str     0x0000000000000000      0x3ce build/kernel/components/libc/compilers/common/ctime.o
 .comment       0x0000000000000000       0x46 build/kernel/components/libc/compilers/common/ctime.o
 .debug_frame   0x0000000000000000      0x2e8 build/kernel/components/libc/compilers/common/ctime.o
 .riscv.attributes
                0x0000000000000000       0x35 build/kernel/components/libc/compilers/common/ctime.o
 .text          0x0000000000000000        0x0 build/kernel/components/libc/compilers/common/cunistd.o
 .data          0x0000000000000000        0x0 build/kernel/components/libc/compilers/common/cunistd.o
 .bss           0x0000000000000000        0x0 build/kernel/components/libc/compilers/common/cunistd.o
 .text.isatty   0x0000000000000000       0x22 build/kernel/components/libc/compilers/common/cunistd.o
 .debug_info    0x0000000000000000       0xcf build/kernel/components/libc/compilers/common/cunistd.o
 .debug_abbrev  0x0000000000000000       0x83 build/kernel/components/libc/compilers/common/cunistd.o
 .debug_loc     0x0000000000000000       0x39 build/kernel/components/libc/compilers/common/cunistd.o
 .debug_aranges
                0x0000000000000000       0x30 build/kernel/components/libc/compilers/common/cunistd.o
 .debug_ranges  0x0000000000000000       0x20 build/kernel/components/libc/compilers/common/cunistd.o
 .debug_line    0x0000000000000000      0x11f build/kernel/components/libc/compilers/common/cunistd.o
 .debug_str     0x0000000000000000      0x1a2 build/kernel/components/libc/compilers/common/cunistd.o
 .comment       0x0000000000000000       0x46 build/kernel/components/libc/compilers/common/cunistd.o
 .debug_frame   0x0000000000000000       0x38 build/kernel/components/libc/compilers/common/cunistd.o
 .riscv.attributes
                0x0000000000000000       0x35 build/kernel/components/libc/compilers/common/cunistd.o
 .text          0x0000000000000000        0x0 build/kernel/components/libc/compilers/common/cwchar.o
 .data          0x0000000000000000        0x0 build/kernel/components/libc/compilers/common/cwchar.o
 .bss           0x0000000000000000        0x0 build/kernel/components/libc/compilers/common/cwchar.o
 .text.wcwidth.part.0
                0x0000000000000000       0xfe build/kernel/components/libc/compilers/common/cwchar.o
 .text.wcwidth  0x0000000000000000        0xc build/kernel/components/libc/compilers/common/cwchar.o
 .text.wcswidth
                0x0000000000000000       0x52 build/kernel/components/libc/compilers/common/cwchar.o
 .rodata.combining.0
                0x0000000000000000      0x640 build/kernel/components/libc/compilers/common/cwchar.o
 .debug_info    0x0000000000000000      0x297 build/kernel/components/libc/compilers/common/cwchar.o
 .debug_abbrev  0x0000000000000000      0x1bd build/kernel/components/libc/compilers/common/cwchar.o
 .debug_loc     0x0000000000000000      0x38f build/kernel/components/libc/compilers/common/cwchar.o
 .debug_aranges
                0x0000000000000000       0x50 build/kernel/components/libc/compilers/common/cwchar.o
 .debug_ranges  0x0000000000000000       0xa0 build/kernel/components/libc/compilers/common/cwchar.o
 .debug_line    0x0000000000000000      0x373 build/kernel/components/libc/compilers/common/cwchar.o
 .debug_str     0x0000000000000000      0x1e5 build/kernel/components/libc/compilers/common/cwchar.o
 .comment       0x0000000000000000       0x46 build/kernel/components/libc/compilers/common/cwchar.o
 .debug_frame   0x0000000000000000       0x78 build/kernel/components/libc/compilers/common/cwchar.o
 .riscv.attributes
                0x0000000000000000       0x35 build/kernel/components/libc/compilers/common/cwchar.o
 .text          0x0000000000000000        0x0 build/kernel/components/libc/compilers/newlib/syscalls.o
 .data          0x0000000000000000        0x0 build/kernel/components/libc/compilers/newlib/syscalls.o
 .bss           0x0000000000000000        0x0 build/kernel/components/libc/compilers/newlib/syscalls.o
 .text.__libc_init_array
                0x0000000000000000        0x2 build/kernel/components/libc/compilers/newlib/syscalls.o
 .text._execve_r
                0x0000000000000000        0xa build/kernel/components/libc/compilers/newlib/syscalls.o
 .text._fcntl_r
                0x0000000000000000        0xa build/kernel/components/libc/compilers/newlib/syscalls.o
 .text._fork_r  0x0000000000000000        0xa build/kernel/components/libc/compilers/newlib/syscalls.o
 .text._link_r  0x0000000000000000        0xa build/kernel/components/libc/compilers/newlib/syscalls.o
 .text._wait_r  0x0000000000000000        0xa build/kernel/components/libc/compilers/newlib/syscalls.o
 .text.umask    0x0000000000000000        0x4 build/kernel/components/libc/compilers/newlib/syscalls.o
 .text.flock    0x0000000000000000        0x4 build/kernel/components/libc/compilers/newlib/syscalls.o
 .text._mkdir_r
                0x0000000000000000       0x58 build/kernel/components/libc/compilers/newlib/syscalls.o
 .text._open_r  0x0000000000000000       0x58 build/kernel/components/libc/compilers/newlib/syscalls.o
 .text._rename_r
                0x0000000000000000       0x58 build/kernel/components/libc/compilers/newlib/syscalls.o
 .text._stat_r  0x0000000000000000       0x58 build/kernel/components/libc/compilers/newlib/syscalls.o
 .text._unlink_r
                0x0000000000000000       0x58 build/kernel/components/libc/compilers/newlib/syscalls.o
 .rodata.__func__.1
                0x0000000000000000        0xa build/kernel/components/libc/compilers/newlib/syscalls.o
 .rodata.__func__.3
                0x0000000000000000        0xa build/kernel/components/libc/compilers/newlib/syscalls.o
 .rodata.__func__.6
                0x0000000000000000        0x9 build/kernel/components/libc/compilers/newlib/syscalls.o
 .srodata.__func__.2
                0x0000000000000000        0x8 build/kernel/components/libc/compilers/newlib/syscalls.o
 .srodata.__func__.5
                0x0000000000000000        0x8 build/kernel/components/libc/compilers/newlib/syscalls.o
 .data          0x0000000000000000        0x0 build/kernel/libcpu/risc-v/common/context_gcc.o
 .bss           0x0000000000000000        0x0 build/kernel/libcpu/risc-v/common/context_gcc.o
 .text          0x0000000000000000        0x0 build/kernel/libcpu/risc-v/common/cpuport.o
 .data          0x0000000000000000        0x0 build/kernel/libcpu/risc-v/common/cpuport.o
 .bss           0x0000000000000000        0x0 build/kernel/libcpu/risc-v/common/cpuport.o
 .text.rt_hw_do_after_save_above
                0x0000000000000000        0x2 build/kernel/libcpu/risc-v/common/cpuport.o
 .text          0x0000000000000000        0x0 build/kernel/libcpu/risc-v/common/interrupt_gcc.o
 .data          0x0000000000000000        0x0 build/kernel/libcpu/risc-v/common/interrupt_gcc.o
 .bss           0x0000000000000000        0x0 build/kernel/libcpu/risc-v/common/interrupt_gcc.o
 .text.entry    0x0000000000000000      0x178 build/kernel/libcpu/risc-v/common/interrupt_gcc.o
 .text.trap_entry
                0x0000000000000000       0xec build/kernel/libcpu/risc-v/common/interrupt_gcc.o
 .debug_line    0x0000000000000000      0x61b build/kernel/libcpu/risc-v/common/interrupt_gcc.o
 .debug_info    0x0000000000000000       0x22 build/kernel/libcpu/risc-v/common/interrupt_gcc.o
 .debug_abbrev  0x0000000000000000       0x12 build/kernel/libcpu/risc-v/common/interrupt_gcc.o
 .debug_aranges
                0x0000000000000000       0x40 build/kernel/libcpu/risc-v/common/interrupt_gcc.o
 .debug_str     0x0000000000000000       0x7f build/kernel/libcpu/risc-v/common/interrupt_gcc.o
 .debug_ranges  0x0000000000000000       0x40 build/kernel/libcpu/risc-v/common/interrupt_gcc.o
 .riscv.attributes
                0x0000000000000000       0x37 build/kernel/libcpu/risc-v/common/interrupt_gcc.o
 .text          0x0000000000000000        0x0 build/kernel/libcpu/risc-v/common/trap_common.o
 .data          0x0000000000000000        0x0 build/kernel/libcpu/risc-v/common/trap_common.o
 .bss           0x0000000000000000        0x0 build/kernel/libcpu/risc-v/common/trap_common.o
 .rodata.rt_hw_interrupt_handle.str1.8
                0x0000000000000000       0x25 build/kernel/libcpu/risc-v/common/trap_common.o
 .text.rt_hw_interrupt_handle
                0x0000000000000000       0x1e build/kernel/libcpu/risc-v/common/trap_common.o
 .text.rt_hw_interrupt_init
                0x0000000000000000       0x26 build/kernel/libcpu/risc-v/common/trap_common.o
 .text.rt_hw_interrupt_install
                0x0000000000000000       0x20 build/kernel/libcpu/risc-v/common/trap_common.o
 .rodata.rt_show_stack_frame.str1.8
                0x0000000000000000      0x1d3 build/kernel/libcpu/risc-v/common/trap_common.o
 .text.rt_show_stack_frame
                0x0000000000000000      0x178 build/kernel/libcpu/risc-v/common/trap_common.o
 .text.rt_rv32_system_irq_handler
                0x0000000000000000       0x36 build/kernel/libcpu/risc-v/common/trap_common.o
 .bss.rv32irq_table
                0x0000000000000000      0x200 build/kernel/libcpu/risc-v/common/trap_common.o
 .sbss.s_stack_frame
                0x0000000000000000        0x8 build/kernel/libcpu/risc-v/common/trap_common.o
 .debug_info    0x0000000000000000      0x8cc build/kernel/libcpu/risc-v/common/trap_common.o
 .debug_abbrev  0x0000000000000000      0x1d4 build/kernel/libcpu/risc-v/common/trap_common.o
 .debug_loc     0x0000000000000000      0x320 build/kernel/libcpu/risc-v/common/trap_common.o
 .debug_aranges
                0x0000000000000000       0x70 build/kernel/libcpu/risc-v/common/trap_common.o
 .debug_ranges  0x0000000000000000       0x60 build/kernel/libcpu/risc-v/common/trap_common.o
 .debug_line    0x0000000000000000      0x578 build/kernel/libcpu/risc-v/common/trap_common.o
 .debug_str     0x0000000000000000      0x311 build/kernel/libcpu/risc-v/common/trap_common.o
 .comment       0x0000000000000000       0x46 build/kernel/libcpu/risc-v/common/trap_common.o
 .debug_frame   0x0000000000000000       0xb0 build/kernel/libcpu/risc-v/common/trap_common.o
 .riscv.attributes
                0x0000000000000000       0x39 build/kernel/libcpu/risc-v/common/trap_common.o
 .text          0x0000000000000000        0x0 build/kernel/libcpu/risc-v/rv64/cpuport.o
 .data          0x0000000000000000        0x0 build/kernel/libcpu/risc-v/rv64/cpuport.o
 .bss           0x0000000000000000        0x0 build/kernel/libcpu/risc-v/rv64/cpuport.o
 .text.rt_hw_isb
                0x0000000000000000        0x2 build/kernel/libcpu/risc-v/rv64/cpuport.o
 .debug_info    0x0000000000000000       0x98 build/kernel/libcpu/risc-v/rv64/cpuport.o
 .debug_abbrev  0x0000000000000000       0x44 build/kernel/libcpu/risc-v/rv64/cpuport.o
 .debug_aranges
                0x0000000000000000       0x30 build/kernel/libcpu/risc-v/rv64/cpuport.o
 .debug_ranges  0x0000000000000000       0x20 build/kernel/libcpu/risc-v/rv64/cpuport.o
 .debug_line    0x0000000000000000       0x83 build/kernel/libcpu/risc-v/rv64/cpuport.o
 .debug_str     0x0000000000000000      0x18a build/kernel/libcpu/risc-v/rv64/cpuport.o
 .comment       0x0000000000000000       0x46 build/kernel/libcpu/risc-v/rv64/cpuport.o
 .debug_frame   0x0000000000000000       0x28 build/kernel/libcpu/risc-v/rv64/cpuport.o
 .riscv.attributes
                0x0000000000000000       0x35 build/kernel/libcpu/risc-v/rv64/cpuport.o
 .text          0x0000000000000000        0x0 build/kernel/libcpu/risc-v/rv64/trap.o
 .data          0x0000000000000000        0x0 build/kernel/libcpu/risc-v/rv64/trap.o
 .bss           0x0000000000000000        0x0 build/kernel/libcpu/risc-v/rv64/trap.o
 .text.rt_hw_soft_irq_isr
                0x0000000000000000        0x2 build/kernel/libcpu/risc-v/rv64/trap.o
 .rodata.handle_trap.str1.8
                0x0000000000000000      0xa5e build/kernel/libcpu/risc-v/rv64/trap.o
 .text.handle_trap
                0x0000000000000000      0x500 build/kernel/libcpu/risc-v/rv64/trap.o
 .rodata.handle_trap
                0x0000000000000000       0x30 build/kernel/libcpu/risc-v/rv64/trap.o
 .debug_info    0x0000000000000000      0xdd3 build/kernel/libcpu/risc-v/rv64/trap.o
 .debug_abbrev  0x0000000000000000      0x252 build/kernel/libcpu/risc-v/rv64/trap.o
 .debug_loc     0x0000000000000000      0x239 build/kernel/libcpu/risc-v/rv64/trap.o
 .debug_aranges
                0x0000000000000000       0x40 build/kernel/libcpu/risc-v/rv64/trap.o
 .debug_ranges  0x0000000000000000       0x60 build/kernel/libcpu/risc-v/rv64/trap.o
 .debug_line    0x0000000000000000      0x725 build/kernel/libcpu/risc-v/rv64/trap.o
 .debug_str     0x0000000000000000      0x493 build/kernel/libcpu/risc-v/rv64/trap.o
 .comment       0x0000000000000000       0x46 build/kernel/libcpu/risc-v/rv64/trap.o
 .debug_frame   0x0000000000000000       0x78 build/kernel/libcpu/risc-v/rv64/trap.o
 .riscv.attributes
                0x0000000000000000       0x35 build/kernel/libcpu/risc-v/rv64/trap.o
 .text          0x0000000000000000        0x0 build/applications/main.o
 .data          0x0000000000000000        0x0 build/applications/main.o
 .bss           0x0000000000000000        0x0 build/applications/main.o
 .text          0x0000000000000000        0x0 build/board/board.o
 .data          0x0000000000000000        0x0 build/board/board.o
 .bss           0x0000000000000000        0x0 build/board/board.o
 .text          0x0000000000000000        0x0 build/board/board_uart.o
 .data          0x0000000000000000        0x0 build/board/board_uart.o
 .bss           0x0000000000000000        0x0 build/board/board_uart.o
 .text          0x0000000000000000        0x0 build/board/devices.o
 .data          0x0000000000000000        0x0 build/board/devices.o
 .bss           0x0000000000000000        0x0 build/board/devices.o
 .rodata.dma_spt_list
                0x0000000000000000       0x10 build/board/devices.o
 .rodata.g_dma_chnum
                0x0000000000000000        0x0 build/board/devices.o
 .rodata.gpio_pinmap
                0x0000000000000000        0xc build/board/devices.o
 .rodata.uart_pinmap
                0x0000000000000000        0xc build/board/devices.o
 .srodata.clk_map
                0x0000000000000000        0x8 build/board/devices.o
 .srodata.uart0_dma_ch_list
                0x0000000000000000        0x2 build/board/devices.o
 .srodata.uart_rx_hs_num
                0x0000000000000000        0x2 build/board/devices.o
 .srodata.uart_tx_hs_num
                0x0000000000000000        0x2 build/board/devices.o
 .text          0x0000000000000000        0x0 build/board/dw_uart_ll.o
 .data          0x0000000000000000        0x0 build/board/dw_uart_ll.o
 .bss           0x0000000000000000        0x0 build/board/dw_uart_ll.o
 .text.dw_uart_wait_idle
                0x0000000000000000       0x34 build/board/dw_uart_ll.o
 .text          0x0000000000000000        0x0 build/board/interrupt.o
 .data          0x0000000000000000        0x0 build/board/interrupt.o
 .bss           0x0000000000000000        0x0 build/board/interrupt.o
 .text.rt_hw_interrupt_mask
                0x0000000000000000        0x2 build/board/interrupt.o
 .rodata.rt_hw_irq_isr.str1.8
                0x0000000000000000       0x24 build/board/interrupt.o
 .text.rt_hw_irq_isr
                0x0000000000000000       0x84 build/board/interrupt.o
 .text          0x0000000000000000        0x0 build/board/irq.o
 .data          0x0000000000000000        0x0 build/board/irq.o
 .bss           0x0000000000000000        0x0 build/board/irq.o
 .text.csi_irq_attach
                0x0000000000000000       0x18 build/board/irq.o
 .text.csi_irq_attach2
                0x0000000000000000       0x1a build/board/irq.o
 .text.csi_irq_detach
                0x0000000000000000       0x18 build/board/irq.o
 .text.csi_irq_context
                0x0000000000000000        0xe build/board/irq.o
 .text          0x0000000000000000        0x0 build/board/irq_port.o
 .data          0x0000000000000000        0x0 build/board/irq_port.o
 .bss           0x0000000000000000        0x0 build/board/irq_port.o
 .text.soc_irq_enable
                0x0000000000000000       0x3c build/board/irq_port.o
 .text.soc_irq_disable
                0x0000000000000000       0x42 build/board/irq_port.o
 .text.soc_irq_is_enabled
                0x0000000000000000       0x38 build/board/irq_port.o
 .text.soc_irq_priority
                0x0000000000000000        0xe build/board/irq_port.o
 .data          0x0000000000000000        0x0 build/board/startup.o
 .bss           0x0000000000000000        0x0 build/board/startup.o
 .text          0x0000000000000000        0x0 build/board/sys_clk.o
 .data          0x0000000000000000        0x0 build/board/sys_clk.o
 .bss           0x0000000000000000        0x0 build/board/sys_clk.o
 .text.soc_get_cpu_freq
                0x0000000000000000        0xa build/board/sys_clk.o
 .text.soc_get_cur_cpu_freq
                0x0000000000000000        0xa build/board/sys_clk.o
 .text.soc_sysclk_config
                0x0000000000000000        0x4 build/board/sys_clk.o
 .text.soc_reset_uart
                0x0000000000000000        0x2 build/board/sys_clk.o
 .text.soc_get_timer_freq
                0x0000000000000000        0xa build/board/sys_clk.o
 .text.soc_clk_enable
                0x0000000000000000        0x2 build/board/sys_clk.o
 .text.soc_clk_disable
                0x0000000000000000        0x2 build/board/sys_clk.o
 .text          0x0000000000000000        0x0 build/board/system.o
 .data          0x0000000000000000        0x0 build/board/system.o
 .bss           0x0000000000000000        0x0 build/board/system.o
 .text          0x0000000000000000        0x0 build/board/target_get.o
 .data          0x0000000000000000        0x0 build/board/target_get.o
 .bss           0x0000000000000000        0x0 build/board/target_get.o
 .text.target_pin_to_devidx
                0x0000000000000000       0x58 build/board/target_get.o
 .text.target_pin_to_channel
                0x0000000000000000       0x20 build/board/target_get.o
 .text.target_gpio_to_pin
                0x0000000000000000       0x30 build/board/target_get.o
 .text.target_get_optimal_dma_channel
                0x0000000000000000      0x110 build/board/target_get.o
 .text          0x0000000000000000        0x0 build/board/tick.o
 .data          0x0000000000000000        0x0 build/board/tick.o
 .bss           0x0000000000000000        0x0 build/board/tick.o
 .text.csi_tick_increase
                0x0000000000000000       0x14 build/board/tick.o
 .text.csi_tick_get
                0x0000000000000000        0xa build/board/tick.o
 .text.csi_tick_uninit
                0x0000000000000000        0xa build/board/tick.o
 .text.csi_tick_get_ms
                0x0000000000000000       0x42 build/board/tick.o
 .text.csi_tick_get_us
                0x0000000000000000       0x44 build/board/tick.o
 .sbss.last_time_ms
                0x0000000000000000        0x4 build/board/tick.o
 .sbss.last_time_us
                0x0000000000000000        0x8 build/board/tick.o
 .text          0x0000000000000000        0x0 build/board/trap_c.o
 .data          0x0000000000000000        0x0 build/board/trap_c.o
 .bss           0x0000000000000000        0x0 build/board/trap_c.o
 .text          0x0000000000000000        0x0 build/board/uart.o
 .data          0x0000000000000000        0x0 build/board/uart.o
 .bss           0x0000000000000000        0x0 build/board/uart.o
 .text.dw_uart_receive_intr
                0x0000000000000000       0x12 build/board/uart.o
 .text.dw_uart_send_intr
                0x0000000000000000       0x12 build/board/uart.o
 .text.dw_uart_send_dma
                0x0000000000000000       0xd8 build/board/uart.o
 .text.dw_uart_receive_dma
                0x0000000000000000       0xd4 build/board/uart.o
 .text.dw_uart_dma_event_cb
                0x0000000000000000       0xea build/board/uart.o
 .text.csi_uart_uninit
                0x0000000000000000       0x48 build/board/uart.o
 .text.csi_uart_flowctrl
                0x0000000000000000       0x5e build/board/uart.o
 .text.csi_uart_receive
                0x0000000000000000       0x92 build/board/uart.o
 .text.csi_uart_receive_async
                0x0000000000000000       0x2c build/board/uart.o
 .text.csi_uart_send
                0x0000000000000000       0x9e build/board/uart.o
 .text.csi_uart_send_async
                0x0000000000000000       0x2c build/board/uart.o
 .text.csi_uart_attach_callback
                0x0000000000000000       0x64 build/board/uart.o
 .text.csi_uart_detach_callback
                0x0000000000000000       0x42 build/board/uart.o
 .text.csi_uart_get_state
                0x0000000000000000       0x26 build/board/uart.o
 .text.csi_uart_link_dma
                0x0000000000000000      0x128 build/board/uart.o
 .data          0x0000000000000000        0x0 build/board/vectors.o
 .bss           0x0000000000000000        0x0 build/board/vectors.o
 .text          0x0000000000000000        0x0 build/kernel/components/drivers/core/device.o
 .data          0x0000000000000000        0x0 build/kernel/components/drivers/core/device.o
 .bss           0x0000000000000000        0x0 build/kernel/components/drivers/core/device.o
 .text.rt_device_unregister
                0x0000000000000000       0xa4 build/kernel/components/drivers/core/device.o
 .text.rt_device_create
                0x0000000000000000       0x3a build/kernel/components/drivers/core/device.o
 .rodata.rt_device_destroy.str1.8
                0x0000000000000000       0x34 build/kernel/components/drivers/core/device.o
 .text.rt_device_destroy
                0x0000000000000000       0x98 build/kernel/components/drivers/core/device.o
 .text.rt_device_init
                0x0000000000000000       0x98 build/kernel/components/drivers/core/device.o
 .text.rt_device_control
                0x0000000000000000       0x82 build/kernel/components/drivers/core/device.o
 .text.rt_device_set_tx_complete
                0x0000000000000000       0x66 build/kernel/components/drivers/core/device.o
 .rodata.__FUNCTION__.0
                0x0000000000000000       0x1a build/kernel/components/drivers/core/device.o
 .rodata.__FUNCTION__.2
                0x0000000000000000       0x12 build/kernel/components/drivers/core/device.o
 .rodata.__FUNCTION__.7
                0x0000000000000000        0xf build/kernel/components/drivers/core/device.o
 .rodata.__FUNCTION__.8
                0x0000000000000000       0x12 build/kernel/components/drivers/core/device.o
 .rodata.__FUNCTION__.9
                0x0000000000000000       0x15 build/kernel/components/drivers/core/device.o
 .text          0x0000000000000000        0x0 build/kernel/components/drivers/cputime/cputime.o
 .data          0x0000000000000000        0x0 build/kernel/components/drivers/cputime/cputime.o
 .bss           0x0000000000000000        0x0 build/kernel/components/drivers/cputime/cputime.o
 .text.clock_cpu_getres
                0x0000000000000000       0x26 build/kernel/components/drivers/cputime/cputime.o
 .text.clock_cpu_gettime
                0x0000000000000000       0x26 build/kernel/components/drivers/cputime/cputime.o
 .text.clock_cpu_settimeout
                0x0000000000000000       0x26 build/kernel/components/drivers/cputime/cputime.o
 .text.clock_cpu_issettimeout
                0x0000000000000000       0x14 build/kernel/components/drivers/cputime/cputime.o
 .text.clock_cpu_microsecond
                0x0000000000000000       0x44 build/kernel/components/drivers/cputime/cputime.o
 .text.clock_cpu_millisecond
                0x0000000000000000       0x46 build/kernel/components/drivers/cputime/cputime.o
 .text          0x0000000000000000        0x0 build/kernel/components/drivers/cputime/cputime_riscv.o
 .data          0x0000000000000000        0x0 build/kernel/components/drivers/cputime/cputime_riscv.o
 .bss           0x0000000000000000        0x0 build/kernel/components/drivers/cputime/cputime_riscv.o
 .text          0x0000000000000000        0x0 build/kernel/components/drivers/cputime/cputimer.o
 .data          0x0000000000000000        0x0 build/kernel/components/drivers/cputime/cputimer.o
 .bss           0x0000000000000000        0x0 build/kernel/components/drivers/cputime/cputimer.o
 .text._set_next_timeout
                0x0000000000000000       0x58 build/kernel/components/drivers/cputime/cputimer.o
 .text._cputime_timeout_callback
                0x0000000000000000       0x76 build/kernel/components/drivers/cputime/cputimer.o
 .text._cputime_sleep_timeout
                0x0000000000000000        0x8 build/kernel/components/drivers/cputime/cputimer.o
 .rodata.rt_cputimer_init.str1.8
                0x0000000000000000       0x60 build/kernel/components/drivers/cputime/cputimer.o
 .text.rt_cputimer_init
                0x0000000000000000       0xd0 build/kernel/components/drivers/cputime/cputimer.o
 .text.rt_cputimer_delete
                0x0000000000000000       0x8c build/kernel/components/drivers/cputime/cputimer.o
 .text.rt_cputimer_start
                0x0000000000000000       0xe0 build/kernel/components/drivers/cputime/cputimer.o
 .text.rt_cputimer_stop
                0x0000000000000000       0xaa build/kernel/components/drivers/cputime/cputimer.o
 .rodata.rt_cputimer_control.str1.8
                0x0000000000000000       0x2b build/kernel/components/drivers/cputime/cputimer.o
 .text.rt_cputimer_control
                0x0000000000000000      0x126 build/kernel/components/drivers/cputime/cputimer.o
 .rodata.rt_cputimer_control
                0x0000000000000000       0x28 build/kernel/components/drivers/cputime/cputimer.o
 .text.rt_cputimer_detach
                0x0000000000000000       0xa0 build/kernel/components/drivers/cputime/cputimer.o
 .rodata.rt_cputime_sleep.str1.8
                0x0000000000000000        0xe build/kernel/components/drivers/cputime/cputimer.o
 .text.rt_cputime_sleep
                0x0000000000000000       0x9a build/kernel/components/drivers/cputime/cputimer.o
 .text.rt_cputime_ndelay
                0x0000000000000000       0x2e build/kernel/components/drivers/cputime/cputimer.o
 .text.rt_cputime_udelay
                0x0000000000000000       0x2e build/kernel/components/drivers/cputime/cputimer.o
 .text.rt_cputime_mdelay
                0x0000000000000000       0x30 build/kernel/components/drivers/cputime/cputimer.o
 .data._cputimer_list
                0x0000000000000000       0x10 build/kernel/components/drivers/cputime/cputimer.o
 .rodata.__FUNCTION__.0
                0x0000000000000000       0x13 build/kernel/components/drivers/cputime/cputimer.o
 .rodata.__FUNCTION__.1
                0x0000000000000000       0x14 build/kernel/components/drivers/cputime/cputimer.o
 .rodata.__FUNCTION__.2
                0x0000000000000000       0x11 build/kernel/components/drivers/cputime/cputimer.o
 .rodata.__FUNCTION__.3
                0x0000000000000000       0x12 build/kernel/components/drivers/cputime/cputimer.o
 .rodata.__FUNCTION__.4
                0x0000000000000000       0x13 build/kernel/components/drivers/cputime/cputimer.o
 .rodata.__FUNCTION__.5
                0x0000000000000000       0x11 build/kernel/components/drivers/cputime/cputimer.o
 .sbss._cputimer_nowtimer
                0x0000000000000000        0x8 build/kernel/components/drivers/cputime/cputimer.o
 .debug_info    0x0000000000000000     0x10d6 build/kernel/components/drivers/cputime/cputimer.o
 .debug_abbrev  0x0000000000000000      0x37f build/kernel/components/drivers/cputime/cputimer.o
 .debug_loc     0x0000000000000000      0xcf4 build/kernel/components/drivers/cputime/cputimer.o
 .debug_aranges
                0x0000000000000000       0xf0 build/kernel/components/drivers/cputime/cputimer.o
 .debug_ranges  0x0000000000000000      0x3a0 build/kernel/components/drivers/cputime/cputimer.o
 .debug_line    0x0000000000000000     0x1203 build/kernel/components/drivers/cputime/cputimer.o
 .debug_str     0x0000000000000000      0x5ce build/kernel/components/drivers/cputime/cputimer.o
 .comment       0x0000000000000000       0x46 build/kernel/components/drivers/cputime/cputimer.o
 .debug_frame   0x0000000000000000      0x260 build/kernel/components/drivers/cputime/cputimer.o
 .riscv.attributes
                0x0000000000000000       0x35 build/kernel/components/drivers/cputime/cputimer.o
 .text          0x0000000000000000        0x0 build/kernel/components/drivers/ipc/completion_comm.o
 .data          0x0000000000000000        0x0 build/kernel/components/drivers/ipc/completion_comm.o
 .bss           0x0000000000000000        0x0 build/kernel/components/drivers/ipc/completion_comm.o
 .text.rt_completion_done
                0x0000000000000000        0xa build/kernel/components/drivers/ipc/completion_comm.o
 .text.rt_completion_wakeup
                0x0000000000000000        0xa build/kernel/components/drivers/ipc/completion_comm.o
 .text          0x0000000000000000        0x0 build/kernel/components/drivers/ipc/completion_up.o
 .data          0x0000000000000000        0x0 build/kernel/components/drivers/ipc/completion_up.o
 .bss           0x0000000000000000        0x0 build/kernel/components/drivers/ipc/completion_up.o
 .text.rt_completion_wakeup_by_errno
                0x0000000000000000       0xa0 build/kernel/components/drivers/ipc/completion_up.o
 .rodata.__FUNCTION__.0
                0x0000000000000000       0x1e build/kernel/components/drivers/ipc/completion_up.o
 .text          0x0000000000000000        0x0 build/kernel/components/drivers/ipc/condvar.o
 .data          0x0000000000000000        0x0 build/kernel/components/drivers/ipc/condvar.o
 .bss           0x0000000000000000        0x0 build/kernel/components/drivers/ipc/condvar.o
 .text._waitq_inqueue
                0x0000000000000000       0x78 build/kernel/components/drivers/ipc/condvar.o
 .text.rt_condvar_init
                0x0000000000000000       0x4e build/kernel/components/drivers/ipc/condvar.o
 .rodata.rt_condvar_timedwait.str1.8
                0x0000000000000000      0x122 build/kernel/components/drivers/ipc/condvar.o
 .text.rt_condvar_timedwait
                0x0000000000000000      0x31e build/kernel/components/drivers/ipc/condvar.o
 .text.rt_condvar_signal
                0x0000000000000000       0x6e build/kernel/components/drivers/ipc/condvar.o
 .text.rt_condvar_broadcast
                0x0000000000000000       0x6e build/kernel/components/drivers/ipc/condvar.o
 .bss._local_cv_queue_lock
                0x0000000000000000       0x10 build/kernel/components/drivers/ipc/condvar.o
 .rodata.__FUNCTION__.0
                0x0000000000000000       0x15 build/kernel/components/drivers/ipc/condvar.o
 .rodata.__FUNCTION__.1
                0x0000000000000000       0x12 build/kernel/components/drivers/ipc/condvar.o
 .rodata.__FUNCTION__.2
                0x0000000000000000       0x15 build/kernel/components/drivers/ipc/condvar.o
 .debug_info    0x0000000000000000     0x138f build/kernel/components/drivers/ipc/condvar.o
 .debug_abbrev  0x0000000000000000      0x356 build/kernel/components/drivers/ipc/condvar.o
 .debug_loc     0x0000000000000000      0xc65 build/kernel/components/drivers/ipc/condvar.o
 .debug_aranges
                0x0000000000000000       0x70 build/kernel/components/drivers/ipc/condvar.o
 .debug_ranges  0x0000000000000000      0x160 build/kernel/components/drivers/ipc/condvar.o
 .debug_line    0x0000000000000000      0xc6e build/kernel/components/drivers/ipc/condvar.o
 .debug_str     0x0000000000000000      0x7f7 build/kernel/components/drivers/ipc/condvar.o
 .comment       0x0000000000000000       0x46 build/kernel/components/drivers/ipc/condvar.o
 .debug_frame   0x0000000000000000      0x120 build/kernel/components/drivers/ipc/condvar.o
 .riscv.attributes
                0x0000000000000000       0x35 build/kernel/components/drivers/ipc/condvar.o
 .text          0x0000000000000000        0x0 build/kernel/components/drivers/ipc/dataqueue.o
 .data          0x0000000000000000        0x0 build/kernel/components/drivers/ipc/dataqueue.o
 .bss           0x0000000000000000        0x0 build/kernel/components/drivers/ipc/dataqueue.o
 .text.rt_data_queue_peek
                0x0000000000000000       0xbc build/kernel/components/drivers/ipc/dataqueue.o
 .text.rt_data_queue_len
                0x0000000000000000       0xc8 build/kernel/components/drivers/ipc/dataqueue.o
 .rodata.rt_data_queue_pop.str1.8
                0x0000000000000000       0x28 build/kernel/components/drivers/ipc/dataqueue.o
 .text.rt_data_queue_pop
                0x0000000000000000      0x340 build/kernel/components/drivers/ipc/dataqueue.o
 .rodata.__FUNCTION__.0
                0x0000000000000000       0x12 build/kernel/components/drivers/ipc/dataqueue.o
 .rodata.__FUNCTION__.3
                0x0000000000000000       0x13 build/kernel/components/drivers/ipc/dataqueue.o
 .rodata.__FUNCTION__.4
                0x0000000000000000       0x12 build/kernel/components/drivers/ipc/dataqueue.o
 .text          0x0000000000000000        0x0 build/kernel/components/drivers/ipc/pipe.o
 .data          0x0000000000000000        0x0 build/kernel/components/drivers/ipc/pipe.o
 .bss           0x0000000000000000        0x0 build/kernel/components/drivers/ipc/pipe.o
 .text.rt_pipe_control
                0x0000000000000000        0x4 build/kernel/components/drivers/ipc/pipe.o
 .text.rt_pipe_open
                0x0000000000000000       0x50 build/kernel/components/drivers/ipc/pipe.o
 .text.rt_pipe_close
                0x0000000000000000       0x44 build/kernel/components/drivers/ipc/pipe.o
 .text.rt_pipe_read
                0x0000000000000000       0x80 build/kernel/components/drivers/ipc/pipe.o
 .text.rt_pipe_write
                0x0000000000000000       0x80 build/kernel/components/drivers/ipc/pipe.o
 .rodata.rt_pipe_create.str1.8
                0x0000000000000000       0x26 build/kernel/components/drivers/ipc/pipe.o
 .text.rt_pipe_create
                0x0000000000000000      0x142 build/kernel/components/drivers/ipc/pipe.o
 .text.rt_pipe_delete
                0x0000000000000000       0x58 build/kernel/components/drivers/ipc/pipe.o
 .rodata.__FUNCTION__.1
                0x0000000000000000        0xf build/kernel/components/drivers/ipc/pipe.o
 .debug_info    0x0000000000000000     0x1320 build/kernel/components/drivers/ipc/pipe.o
 .debug_abbrev  0x0000000000000000      0x374 build/kernel/components/drivers/ipc/pipe.o
 .debug_loc     0x0000000000000000      0xcdb build/kernel/components/drivers/ipc/pipe.o
 .debug_aranges
                0x0000000000000000       0x90 build/kernel/components/drivers/ipc/pipe.o
 .debug_ranges  0x0000000000000000      0x170 build/kernel/components/drivers/ipc/pipe.o
 .debug_line    0x0000000000000000      0x9e6 build/kernel/components/drivers/ipc/pipe.o
 .debug_str     0x0000000000000000      0xb05 build/kernel/components/drivers/ipc/pipe.o
 .comment       0x0000000000000000       0x46 build/kernel/components/drivers/ipc/pipe.o
 .debug_frame   0x0000000000000000      0x170 build/kernel/components/drivers/ipc/pipe.o
 .riscv.attributes
                0x0000000000000000       0x35 build/kernel/components/drivers/ipc/pipe.o
 .text          0x0000000000000000        0x0 build/kernel/components/drivers/ipc/ringblk_buf.o
 .data          0x0000000000000000        0x0 build/kernel/components/drivers/ipc/ringblk_buf.o
 .bss           0x0000000000000000        0x0 build/kernel/components/drivers/ipc/ringblk_buf.o
 .rodata.rt_rbb_init.str1.8
                0x0000000000000000       0x1a build/kernel/components/drivers/ipc/ringblk_buf.o
 .text.rt_rbb_init
                0x0000000000000000       0xda build/kernel/components/drivers/ipc/ringblk_buf.o
 .text.rt_rbb_create
                0x0000000000000000       0x88 build/kernel/components/drivers/ipc/ringblk_buf.o
 .text.rt_rbb_destroy
                0x0000000000000000       0x4c build/kernel/components/drivers/ipc/ringblk_buf.o
 .rodata.rt_rbb_blk_alloc.str1.8
                0x0000000000000000       0x3e build/kernel/components/drivers/ipc/ringblk_buf.o
 .text.rt_rbb_blk_alloc
                0x0000000000000000      0x228 build/kernel/components/drivers/ipc/ringblk_buf.o
 .rodata.rt_rbb_blk_put.str1.8
                0x0000000000000000       0x2b build/kernel/components/drivers/ipc/ringblk_buf.o
 .text.rt_rbb_blk_put
                0x0000000000000000       0x5c build/kernel/components/drivers/ipc/ringblk_buf.o
 .text.rt_rbb_blk_get
                0x0000000000000000       0x74 build/kernel/components/drivers/ipc/ringblk_buf.o
 .text.rt_rbb_blk_size
                0x0000000000000000       0x42 build/kernel/components/drivers/ipc/ringblk_buf.o
 .text.rt_rbb_blk_buf
                0x0000000000000000       0x3a build/kernel/components/drivers/ipc/ringblk_buf.o
 .rodata.rt_rbb_blk_free.str1.8
                0x0000000000000000       0x23 build/kernel/components/drivers/ipc/ringblk_buf.o
 .text.rt_rbb_blk_free
                0x0000000000000000       0xc6 build/kernel/components/drivers/ipc/ringblk_buf.o
 .rodata.rt_rbb_blk_queue_get.str1.8
                0x0000000000000000        0xa build/kernel/components/drivers/ipc/ringblk_buf.o
 .text.rt_rbb_blk_queue_get
                0x0000000000000000      0x10c build/kernel/components/drivers/ipc/ringblk_buf.o
 .text.rt_rbb_blk_queue_len
                0x0000000000000000       0x56 build/kernel/components/drivers/ipc/ringblk_buf.o
 .text.rt_rbb_blk_queue_buf
                0x0000000000000000       0x3e build/kernel/components/drivers/ipc/ringblk_buf.o
 .text.rt_rbb_blk_queue_free
                0x0000000000000000       0x8a build/kernel/components/drivers/ipc/ringblk_buf.o
 .text.rt_rbb_next_blk_queue_len
                0x0000000000000000       0xbc build/kernel/components/drivers/ipc/ringblk_buf.o
 .text.rt_rbb_get_buf_size
                0x0000000000000000       0x3a build/kernel/components/drivers/ipc/ringblk_buf.o
 .rodata.__FUNCTION__.0
                0x0000000000000000       0x14 build/kernel/components/drivers/ipc/ringblk_buf.o
 .rodata.__FUNCTION__.1
                0x0000000000000000       0x1a build/kernel/components/drivers/ipc/ringblk_buf.o
 .rodata.__FUNCTION__.10
                0x0000000000000000        0xf build/kernel/components/drivers/ipc/ringblk_buf.o
 .rodata.__FUNCTION__.11
                0x0000000000000000       0x16 build/kernel/components/drivers/ipc/ringblk_buf.o
 .rodata.__FUNCTION__.12
                0x0000000000000000       0x11 build/kernel/components/drivers/ipc/ringblk_buf.o
 .rodata.__FUNCTION__.13
                0x0000000000000000        0xf build/kernel/components/drivers/ipc/ringblk_buf.o
 .rodata.__FUNCTION__.14
                0x0000000000000000        0xc build/kernel/components/drivers/ipc/ringblk_buf.o
 .rodata.__FUNCTION__.2
                0x0000000000000000       0x16 build/kernel/components/drivers/ipc/ringblk_buf.o
 .rodata.__FUNCTION__.3
                0x0000000000000000       0x15 build/kernel/components/drivers/ipc/ringblk_buf.o
 .rodata.__FUNCTION__.4
                0x0000000000000000       0x15 build/kernel/components/drivers/ipc/ringblk_buf.o
 .rodata.__FUNCTION__.5
                0x0000000000000000       0x15 build/kernel/components/drivers/ipc/ringblk_buf.o
 .rodata.__FUNCTION__.6
                0x0000000000000000       0x10 build/kernel/components/drivers/ipc/ringblk_buf.o
 .rodata.__FUNCTION__.7
                0x0000000000000000        0xf build/kernel/components/drivers/ipc/ringblk_buf.o
 .rodata.__FUNCTION__.8
                0x0000000000000000       0x10 build/kernel/components/drivers/ipc/ringblk_buf.o
 .rodata.__FUNCTION__.9
                0x0000000000000000        0xf build/kernel/components/drivers/ipc/ringblk_buf.o
 .debug_info    0x0000000000000000     0x167d build/kernel/components/drivers/ipc/ringblk_buf.o
 .debug_abbrev  0x0000000000000000      0x312 build/kernel/components/drivers/ipc/ringblk_buf.o
 .debug_loc     0x0000000000000000     0x1d3f build/kernel/components/drivers/ipc/ringblk_buf.o
 .debug_aranges
                0x0000000000000000      0x110 build/kernel/components/drivers/ipc/ringblk_buf.o
 .debug_ranges  0x0000000000000000      0x510 build/kernel/components/drivers/ipc/ringblk_buf.o
 .debug_line    0x0000000000000000     0x1b3d build/kernel/components/drivers/ipc/ringblk_buf.o
 .debug_str     0x0000000000000000      0x5c5 build/kernel/components/drivers/ipc/ringblk_buf.o
 .comment       0x0000000000000000       0x46 build/kernel/components/drivers/ipc/ringblk_buf.o
 .debug_frame   0x0000000000000000      0x368 build/kernel/components/drivers/ipc/ringblk_buf.o
 .riscv.attributes
                0x0000000000000000       0x35 build/kernel/components/drivers/ipc/ringblk_buf.o
 .text          0x0000000000000000        0x0 build/kernel/components/drivers/ipc/ringbuffer.o
 .data          0x0000000000000000        0x0 build/kernel/components/drivers/ipc/ringbuffer.o
 .bss           0x0000000000000000        0x0 build/kernel/components/drivers/ipc/ringbuffer.o
 .rodata.rt_ringbuffer_init.str1.8
                0x0000000000000000       0x19 build/kernel/components/drivers/ipc/ringbuffer.o
 .text.rt_ringbuffer_init
                0x0000000000000000       0x6a build/kernel/components/drivers/ipc/ringbuffer.o
 .text.rt_ringbuffer_peek
                0x0000000000000000       0xc8 build/kernel/components/drivers/ipc/ringbuffer.o
 .text.rt_ringbuffer_putchar
                0x0000000000000000       0xbe build/kernel/components/drivers/ipc/ringbuffer.o
 .text.rt_ringbuffer_putchar_force
                0x0000000000000000       0xd2 build/kernel/components/drivers/ipc/ringbuffer.o
 .text.rt_ringbuffer_getchar
                0x0000000000000000       0xd0 build/kernel/components/drivers/ipc/ringbuffer.o
 .text.rt_ringbuffer_data_len
                0x0000000000000000       0x42 build/kernel/components/drivers/ipc/ringbuffer.o
 .text.rt_ringbuffer_put
                0x0000000000000000       0xea build/kernel/components/drivers/ipc/ringbuffer.o
 .text.rt_ringbuffer_put_force
                0x0000000000000000      0x168 build/kernel/components/drivers/ipc/ringbuffer.o
 .text.rt_ringbuffer_get
                0x0000000000000000      0x10e build/kernel/components/drivers/ipc/ringbuffer.o
 .text.rt_ringbuffer_reset
                0x0000000000000000       0x3e build/kernel/components/drivers/ipc/ringbuffer.o
 .text.rt_ringbuffer_create
                0x0000000000000000       0xa0 build/kernel/components/drivers/ipc/ringbuffer.o
 .text.rt_ringbuffer_destroy
                0x0000000000000000       0x42 build/kernel/components/drivers/ipc/ringbuffer.o
 .rodata.__FUNCTION__.0
                0x0000000000000000       0x16 build/kernel/components/drivers/ipc/ringbuffer.o
 .rodata.__FUNCTION__.1
                0x0000000000000000       0x15 build/kernel/components/drivers/ipc/ringbuffer.o
 .rodata.__FUNCTION__.10
                0x0000000000000000       0x13 build/kernel/components/drivers/ipc/ringbuffer.o
 .rodata.__FUNCTION__.2
                0x0000000000000000       0x14 build/kernel/components/drivers/ipc/ringbuffer.o
 .rodata.__FUNCTION__.3
                0x0000000000000000       0x16 build/kernel/components/drivers/ipc/ringbuffer.o
 .rodata.__FUNCTION__.4
                0x0000000000000000       0x1c build/kernel/components/drivers/ipc/ringbuffer.o
 .rodata.__FUNCTION__.5
                0x0000000000000000       0x16 build/kernel/components/drivers/ipc/ringbuffer.o
 .rodata.__FUNCTION__.6
                0x0000000000000000       0x13 build/kernel/components/drivers/ipc/ringbuffer.o
 .rodata.__FUNCTION__.7
                0x0000000000000000       0x12 build/kernel/components/drivers/ipc/ringbuffer.o
 .rodata.__FUNCTION__.8
                0x0000000000000000       0x18 build/kernel/components/drivers/ipc/ringbuffer.o
 .rodata.__FUNCTION__.9
                0x0000000000000000       0x12 build/kernel/components/drivers/ipc/ringbuffer.o
 .debug_info    0x0000000000000000      0xd9b build/kernel/components/drivers/ipc/ringbuffer.o
 .debug_abbrev  0x0000000000000000      0x31e build/kernel/components/drivers/ipc/ringbuffer.o
 .debug_loc     0x0000000000000000     0x132d build/kernel/components/drivers/ipc/ringbuffer.o
 .debug_aranges
                0x0000000000000000       0xe0 build/kernel/components/drivers/ipc/ringbuffer.o
 .debug_ranges  0x0000000000000000      0x400 build/kernel/components/drivers/ipc/ringbuffer.o
 .debug_line    0x0000000000000000     0x1531 build/kernel/components/drivers/ipc/ringbuffer.o
 .debug_str     0x0000000000000000      0x416 build/kernel/components/drivers/ipc/ringbuffer.o
 .comment       0x0000000000000000       0x46 build/kernel/components/drivers/ipc/ringbuffer.o
 .debug_frame   0x0000000000000000      0x2d0 build/kernel/components/drivers/ipc/ringbuffer.o
 .riscv.attributes
                0x0000000000000000       0x35 build/kernel/components/drivers/ipc/ringbuffer.o
 .text          0x0000000000000000        0x0 build/kernel/components/drivers/ipc/waitqueue.o
 .data          0x0000000000000000        0x0 build/kernel/components/drivers/ipc/waitqueue.o
 .bss           0x0000000000000000        0x0 build/kernel/components/drivers/ipc/waitqueue.o
 .text.__wqueue_default_wake
                0x0000000000000000        0x4 build/kernel/components/drivers/ipc/waitqueue.o
 .text.rt_wqueue_add
                0x0000000000000000       0x44 build/kernel/components/drivers/ipc/waitqueue.o
 .rodata.rt_wqueue_remove.str1.8
                0x0000000000000000       0x18 build/kernel/components/drivers/ipc/waitqueue.o
 .text.rt_wqueue_remove
                0x0000000000000000       0x5a build/kernel/components/drivers/ipc/waitqueue.o
 .rodata._rt_wqueue_wait.str1.8
                0x0000000000000000       0x97 build/kernel/components/drivers/ipc/waitqueue.o
 .text._rt_wqueue_wait
                0x0000000000000000      0x20a build/kernel/components/drivers/ipc/waitqueue.o
 .text.rt_wqueue_wakeup
                0x0000000000000000       0xa2 build/kernel/components/drivers/ipc/waitqueue.o
 .text.rt_wqueue_wakeup_all
                0x0000000000000000       0xbc build/kernel/components/drivers/ipc/waitqueue.o
 .text.rt_wqueue_wait
                0x0000000000000000        0xa build/kernel/components/drivers/ipc/waitqueue.o
 .text.rt_wqueue_wait_killable
                0x0000000000000000        0xa build/kernel/components/drivers/ipc/waitqueue.o
 .text.rt_wqueue_wait_interruptible
                0x0000000000000000        0xa build/kernel/components/drivers/ipc/waitqueue.o
 .rodata.__FUNCTION__.0
                0x0000000000000000       0x10 build/kernel/components/drivers/ipc/waitqueue.o
 .rodata.__FUNCTION__.1
                0x0000000000000000       0x11 build/kernel/components/drivers/ipc/waitqueue.o
 .debug_info    0x0000000000000000      0xf60 build/kernel/components/drivers/ipc/waitqueue.o
 .debug_abbrev  0x0000000000000000      0x324 build/kernel/components/drivers/ipc/waitqueue.o
 .debug_loc     0x0000000000000000      0xd48 build/kernel/components/drivers/ipc/waitqueue.o
 .debug_aranges
                0x0000000000000000       0xb0 build/kernel/components/drivers/ipc/waitqueue.o
 .debug_ranges  0x0000000000000000      0x220 build/kernel/components/drivers/ipc/waitqueue.o
 .debug_line    0x0000000000000000      0xc3c build/kernel/components/drivers/ipc/waitqueue.o
 .debug_str     0x0000000000000000      0x6ac build/kernel/components/drivers/ipc/waitqueue.o
 .comment       0x0000000000000000       0x46 build/kernel/components/drivers/ipc/waitqueue.o
 .debug_frame   0x0000000000000000      0x1f0 build/kernel/components/drivers/ipc/waitqueue.o
 .riscv.attributes
                0x0000000000000000       0x35 build/kernel/components/drivers/ipc/waitqueue.o
 .text          0x0000000000000000        0x0 build/kernel/components/drivers/ipc/workqueue.o
 .data          0x0000000000000000        0x0 build/kernel/components/drivers/ipc/workqueue.o
 .bss           0x0000000000000000        0x0 build/kernel/components/drivers/ipc/workqueue.o
 .rodata._workqueue_submit_work.str1.8
                0x0000000000000000        0x5 build/kernel/components/drivers/ipc/workqueue.o
 .text._workqueue_submit_work
                0x0000000000000000      0x106 build/kernel/components/drivers/ipc/workqueue.o
 .rodata._delayed_work_timeout_handler.str1.8
                0x0000000000000000       0x39 build/kernel/components/drivers/ipc/workqueue.o
 .text._delayed_work_timeout_handler
                0x0000000000000000       0xcc build/kernel/components/drivers/ipc/workqueue.o
 .text._workqueue_cancel_work
                0x0000000000000000       0x98 build/kernel/components/drivers/ipc/workqueue.o
 .text._workqueue_thread_entry
                0x0000000000000000       0xcc build/kernel/components/drivers/ipc/workqueue.o
 .rodata.rt_work_init.str1.8
                0x0000000000000000       0x25 build/kernel/components/drivers/ipc/workqueue.o
 .text.rt_work_init
                0x0000000000000000       0x6e build/kernel/components/drivers/ipc/workqueue.o
 .rodata.rt_workqueue_create.str1.8
                0x0000000000000000        0x7 build/kernel/components/drivers/ipc/workqueue.o
 .text.rt_workqueue_create
                0x0000000000000000       0xac build/kernel/components/drivers/ipc/workqueue.o
 .text.rt_workqueue_dowork
                0x0000000000000000       0x62 build/kernel/components/drivers/ipc/workqueue.o
 .rodata.rt_workqueue_submit_work.str1.8
                0x0000000000000000       0x18 build/kernel/components/drivers/ipc/workqueue.o
 .text.rt_workqueue_submit_work
                0x0000000000000000       0x92 build/kernel/components/drivers/ipc/workqueue.o
 .text.rt_workqueue_urgent_work
                0x0000000000000000       0x9e build/kernel/components/drivers/ipc/workqueue.o
 .text.rt_workqueue_cancel_work
                0x0000000000000000       0x72 build/kernel/components/drivers/ipc/workqueue.o
 .text.rt_workqueue_cancel_work_sync
                0x0000000000000000       0x84 build/kernel/components/drivers/ipc/workqueue.o
 .text.rt_workqueue_cancel_all_work
                0x0000000000000000       0x76 build/kernel/components/drivers/ipc/workqueue.o
 .text.rt_workqueue_destroy
                0x0000000000000000       0x5c build/kernel/components/drivers/ipc/workqueue.o
 .rodata.__FUNCTION__.0
                0x0000000000000000       0x1d build/kernel/components/drivers/ipc/workqueue.o
 .rodata.__FUNCTION__.1
                0x0000000000000000       0x1e build/kernel/components/drivers/ipc/workqueue.o
 .rodata.__FUNCTION__.2
                0x0000000000000000       0x19 build/kernel/components/drivers/ipc/workqueue.o
 .rodata.__FUNCTION__.3
                0x0000000000000000       0x19 build/kernel/components/drivers/ipc/workqueue.o
 .rodata.__FUNCTION__.4
                0x0000000000000000       0x19 build/kernel/components/drivers/ipc/workqueue.o
 .rodata.__FUNCTION__.5
                0x0000000000000000       0x1e build/kernel/components/drivers/ipc/workqueue.o
 .rodata.__FUNCTION__.6
                0x0000000000000000       0x14 build/kernel/components/drivers/ipc/workqueue.o
 .rodata.__FUNCTION__.7
                0x0000000000000000       0x15 build/kernel/components/drivers/ipc/workqueue.o
 .rodata.__FUNCTION__.8
                0x0000000000000000       0x18 build/kernel/components/drivers/ipc/workqueue.o
 .rodata.__FUNCTION__.9
                0x0000000000000000        0xd build/kernel/components/drivers/ipc/workqueue.o
 .debug_info    0x0000000000000000     0x1799 build/kernel/components/drivers/ipc/workqueue.o
 .debug_abbrev  0x0000000000000000      0x388 build/kernel/components/drivers/ipc/workqueue.o
 .debug_loc     0x0000000000000000     0x11cf build/kernel/components/drivers/ipc/workqueue.o
 .debug_aranges
                0x0000000000000000       0xf0 build/kernel/components/drivers/ipc/workqueue.o
 .debug_ranges  0x0000000000000000      0x420 build/kernel/components/drivers/ipc/workqueue.o
 .debug_line    0x0000000000000000     0x1543 build/kernel/components/drivers/ipc/workqueue.o
 .debug_str     0x0000000000000000      0x83e build/kernel/components/drivers/ipc/workqueue.o
 .comment       0x0000000000000000       0x46 build/kernel/components/drivers/ipc/workqueue.o
 .debug_frame   0x0000000000000000      0x2f0 build/kernel/components/drivers/ipc/workqueue.o
 .riscv.attributes
                0x0000000000000000       0x35 build/kernel/components/drivers/ipc/workqueue.o
 .text          0x0000000000000000        0x0 build/kernel/components/drivers/pin/pin.o
 .data          0x0000000000000000        0x0 build/kernel/components/drivers/pin/pin.o
 .bss           0x0000000000000000        0x0 build/kernel/components/drivers/pin/pin.o
 .rodata._pin_control.str1.8
                0x0000000000000000        0xf build/kernel/components/drivers/pin/pin.o
 .text._pin_control
                0x0000000000000000       0x4e build/kernel/components/drivers/pin/pin.o
 .text._pin_write
                0x0000000000000000       0x60 build/kernel/components/drivers/pin/pin.o
 .text._pin_read
                0x0000000000000000       0x5e build/kernel/components/drivers/pin/pin.o
 .text.rt_device_pin_register
                0x0000000000000000       0x68 build/kernel/components/drivers/pin/pin.o
 .text.rt_pin_attach_irq
                0x0000000000000000       0x7a build/kernel/components/drivers/pin/pin.o
 .text.rt_pin_detach_irq
                0x0000000000000000       0x5c build/kernel/components/drivers/pin/pin.o
 .text.rt_pin_irq_enable
                0x0000000000000000       0x6a build/kernel/components/drivers/pin/pin.o
 .text.rt_pin_mode
                0x0000000000000000       0x58 build/kernel/components/drivers/pin/pin.o
 .text.rt_pin_write
                0x0000000000000000       0x5a build/kernel/components/drivers/pin/pin.o
 .text.rt_pin_read
                0x0000000000000000       0x4c build/kernel/components/drivers/pin/pin.o
 .text.rt_pin_get
                0x0000000000000000       0x54 build/kernel/components/drivers/pin/pin.o
 .rodata.__FUNCTION__.4
                0x0000000000000000       0x12 build/kernel/components/drivers/pin/pin.o
 .rodata.__FUNCTION__.5
                0x0000000000000000       0x12 build/kernel/components/drivers/pin/pin.o
 .rodata.__FUNCTION__.6
                0x0000000000000000       0x12 build/kernel/components/drivers/pin/pin.o
 .rodata.__FUNCTION__.7
                0x0000000000000000        0xa build/kernel/components/drivers/pin/pin.o
 .rodata.__FUNCTION__.8
                0x0000000000000000        0xb build/kernel/components/drivers/pin/pin.o
 .rodata.__FUNCTION__.9
                0x0000000000000000        0xd build/kernel/components/drivers/pin/pin.o
 .text          0x0000000000000000        0x0 build/kernel/components/drivers/serial/serial.o
 .data          0x0000000000000000        0x0 build/kernel/components/drivers/serial/serial.o
 .bss           0x0000000000000000        0x0 build/kernel/components/drivers/serial/serial.o
 .rodata.rt_hw_serial_isr.str1.8
                0x0000000000000000       0xa6 build/kernel/components/drivers/serial/serial.o
 .text.rt_hw_serial_isr
                0x0000000000000000      0x3b2 build/kernel/components/drivers/serial/serial.o
 .rodata.__FUNCTION__.0
                0x0000000000000000       0x1d build/kernel/components/drivers/serial/serial.o
 .rodata.__FUNCTION__.2
                0x0000000000000000       0x11 build/kernel/components/drivers/serial/serial.o
 .sbss.already_output.1
                0x0000000000000000        0x4 build/kernel/components/drivers/serial/serial.o
 .text          0x0000000000000000        0x0 build/kernel/components/finsh/cmd.o
 .data          0x0000000000000000        0x0 build/kernel/components/finsh/cmd.o
 .bss           0x0000000000000000        0x0 build/kernel/components/finsh/cmd.o
 .text          0x0000000000000000        0x0 build/kernel/components/finsh/msh.o
 .data          0x0000000000000000        0x0 build/kernel/components/finsh/msh.o
 .bss           0x0000000000000000        0x0 build/kernel/components/finsh/msh.o
 .text          0x0000000000000000        0x0 build/kernel/components/finsh/msh_parse.o
 .data          0x0000000000000000        0x0 build/kernel/components/finsh/msh_parse.o
 .bss           0x0000000000000000        0x0 build/kernel/components/finsh/msh_parse.o
 .text.msh_ishex
                0x0000000000000000       0x6e build/kernel/components/finsh/msh_parse.o
 .text.msh_strtohex
                0x0000000000000000       0x68 build/kernel/components/finsh/msh_parse.o
 .text          0x0000000000000000        0x0 build/kernel/components/finsh/shell.o
 .data          0x0000000000000000        0x0 build/kernel/components/finsh/shell.o
 .bss           0x0000000000000000        0x0 build/kernel/components/finsh/shell.o
 .text.finsh_set_prompt
                0x0000000000000000       0x58 build/kernel/components/finsh/shell.o
 .text.finsh_get_prompt_mode
                0x0000000000000000       0x4c build/kernel/components/finsh/shell.o
 .text.finsh_set_prompt_mode
                0x0000000000000000       0x52 build/kernel/components/finsh/shell.o
 .text.finsh_get_device
                0x0000000000000000       0x48 build/kernel/components/finsh/shell.o
 .text.finsh_set_echo
                0x0000000000000000       0x50 build/kernel/components/finsh/shell.o
 .text.finsh_get_echo
                0x0000000000000000       0x4c build/kernel/components/finsh/shell.o
 .text.finsh_thread_entry_sethook
                0x0000000000000000        0xa build/kernel/components/finsh/shell.o
 .rodata.__FUNCTION__.0
                0x0000000000000000        0xf build/kernel/components/finsh/shell.o
 .rodata.__FUNCTION__.1
                0x0000000000000000        0xf build/kernel/components/finsh/shell.o
 .rodata.__FUNCTION__.2
                0x0000000000000000       0x11 build/kernel/components/finsh/shell.o
 .rodata.__FUNCTION__.7
                0x0000000000000000       0x16 build/kernel/components/finsh/shell.o
 .text          0x0000000000000000        0x0 build/kernel/src/clock.o
 .data          0x0000000000000000        0x0 build/kernel/src/clock.o
 .bss           0x0000000000000000        0x0 build/kernel/src/clock.o
 .text.rt_tick_sethook
                0x0000000000000000        0xa build/kernel/src/clock.o
 .text.rt_tick_set
                0x0000000000000000       0x2a build/kernel/src/clock.o
 .text.rt_tick_increase_tick
                0x0000000000000000       0x7a build/kernel/src/clock.o
 .text.rt_tick_from_millisecond
                0x0000000000000000       0x28 build/kernel/src/clock.o
 .text.rt_tick_get_millisecond
                0x0000000000000000       0x2a build/kernel/src/clock.o
 .rodata.__FUNCTION__.0
                0x0000000000000000       0x16 build/kernel/src/clock.o
 .text          0x0000000000000000        0x0 build/kernel/src/components.o
 .data          0x0000000000000000        0x0 build/kernel/src/components.o
 .bss           0x0000000000000000        0x0 build/kernel/src/components.o
 .text.rt_components_init
                0x0000000000000000       0x30 build/kernel/src/components.o
 .text.rtthread_startup
                0x0000000000000000       0x54 build/kernel/src/components.o
 .text          0x0000000000000000        0x0 build/kernel/src/cpu_up.o
 .data          0x0000000000000000        0x0 build/kernel/src/cpu_up.o
 .bss           0x0000000000000000        0x0 build/kernel/src/cpu_up.o
 .text          0x0000000000000000        0x0 build/kernel/src/idle.o
 .data          0x0000000000000000        0x0 build/kernel/src/idle.o
 .bss           0x0000000000000000        0x0 build/kernel/src/idle.o
 .text.rt_thread_idle_sethook
                0x0000000000000000       0x72 build/kernel/src/idle.o
 .text.rt_thread_idle_delhook
                0x0000000000000000       0x78 build/kernel/src/idle.o
 .text.rt_thread_defunct_dequeue
                0x0000000000000000       0x44 build/kernel/src/idle.o
 .text.rt_thread_idle_gethandler
                0x0000000000000000        0xa build/kernel/src/idle.o
 .bss._hook_spinlock
                0x0000000000000000       0x10 build/kernel/src/idle.o
 .text          0x0000000000000000        0x0 build/kernel/src/ipc.o
 .data          0x0000000000000000        0x0 build/kernel/src/ipc.o
 .bss           0x0000000000000000        0x0 build/kernel/src/ipc.o
 .rodata._rt_event_recv.str1.8
                0x0000000000000000       0x5b build/kernel/src/ipc.o
 .text._rt_event_recv
                0x0000000000000000      0x2ca build/kernel/src/ipc.o
 .rodata._rt_mb_send_wait.str1.8
                0x0000000000000000       0x52 build/kernel/src/ipc.o
 .text._rt_mb_send_wait
                0x0000000000000000      0x2e0 build/kernel/src/ipc.o
 .text._rt_mb_recv
                0x0000000000000000      0x304 build/kernel/src/ipc.o
 .rodata._rt_mq_recv.constprop.0.str1.8
                0x0000000000000000       0x7a build/kernel/src/ipc.o
 .text._rt_mq_recv.constprop.0
                0x0000000000000000      0x394 build/kernel/src/ipc.o
 .text._rt_mq_send_wait.constprop.0
                0x0000000000000000      0x36c build/kernel/src/ipc.o
 .text._mutex_before_delete_detach
                0x0000000000000000       0xde build/kernel/src/ipc.o
 .text.rt_susp_list_resume_all
                0x0000000000000000       0x30 build/kernel/src/ipc.o
 .rodata.rt_sem_detach.str1.8
                0x0000000000000000       0x2f build/kernel/src/ipc.o
 .text.rt_sem_detach
                0x0000000000000000       0xce build/kernel/src/ipc.o
 .text.rt_sem_create
                0x0000000000000000       0xd6 build/kernel/src/ipc.o
 .rodata.rt_sem_delete.str1.8
                0x0000000000000000       0x3b build/kernel/src/ipc.o
 .text.rt_sem_delete
                0x0000000000000000      0x116 build/kernel/src/ipc.o
 .text.rt_sem_take_interruptible
                0x0000000000000000        0xa build/kernel/src/ipc.o
 .text.rt_sem_take_killable
                0x0000000000000000        0xa build/kernel/src/ipc.o
 .text.rt_sem_trytake
                0x0000000000000000        0xc build/kernel/src/ipc.o
 .rodata.rt_mutex_detach.str1.8
                0x0000000000000000       0x31 build/kernel/src/ipc.o
 .text.rt_mutex_detach
                0x0000000000000000       0x9c build/kernel/src/ipc.o
 .text.rt_mutex_setprioceiling
                0x0000000000000000      0x21c build/kernel/src/ipc.o
 .text.rt_mutex_getprioceiling
                0x0000000000000000       0xe0 build/kernel/src/ipc.o
 .text.rt_mutex_create
                0x0000000000000000       0x92 build/kernel/src/ipc.o
 .rodata.rt_mutex_delete.str1.8
                0x0000000000000000       0x3d build/kernel/src/ipc.o
 .text.rt_mutex_delete
                0x0000000000000000       0xe4 build/kernel/src/ipc.o
 .text.rt_mutex_take_interruptible
                0x0000000000000000        0xa build/kernel/src/ipc.o
 .text.rt_mutex_take_killable
                0x0000000000000000        0xa build/kernel/src/ipc.o
 .text.rt_mutex_trytake
                0x0000000000000000        0xc build/kernel/src/ipc.o
 .text.rt_mutex_control
                0x0000000000000000        0x4 build/kernel/src/ipc.o
 .text.rt_event_init
                0x0000000000000000       0x8a build/kernel/src/ipc.o
 .rodata.rt_event_detach.str1.8
                0x0000000000000000       0x31 build/kernel/src/ipc.o
 .text.rt_event_detach
                0x0000000000000000       0xce build/kernel/src/ipc.o
 .text.rt_event_create
                0x0000000000000000       0xa6 build/kernel/src/ipc.o
 .rodata.rt_event_delete.str1.8
                0x0000000000000000       0x3d build/kernel/src/ipc.o
 .text.rt_event_delete
                0x0000000000000000      0x10e build/kernel/src/ipc.o
 .text.rt_event_send
                0x0000000000000000      0x198 build/kernel/src/ipc.o
 .text.rt_event_recv
                0x0000000000000000        0xa build/kernel/src/ipc.o
 .text.rt_event_recv_interruptible
                0x0000000000000000        0xa build/kernel/src/ipc.o
 .text.rt_event_recv_killable
                0x0000000000000000        0xa build/kernel/src/ipc.o
 .text.rt_event_control
                0x0000000000000000       0xc4 build/kernel/src/ipc.o
 .text.rt_mb_init
                0x0000000000000000       0xae build/kernel/src/ipc.o
 .rodata.rt_mb_detach.str1.8
                0x0000000000000000       0x2e build/kernel/src/ipc.o
 .text.rt_mb_detach
                0x0000000000000000       0xe8 build/kernel/src/ipc.o
 .text.rt_mb_create
                0x0000000000000000       0xe2 build/kernel/src/ipc.o
 .rodata.rt_mb_delete.str1.8
                0x0000000000000000       0x3a build/kernel/src/ipc.o
 .text.rt_mb_delete
                0x0000000000000000      0x136 build/kernel/src/ipc.o
 .text.rt_mb_send_wait
                0x0000000000000000        0xa build/kernel/src/ipc.o
 .text.rt_mb_send_wait_interruptible
                0x0000000000000000        0xa build/kernel/src/ipc.o
 .text.rt_mb_send_wait_killable
                0x0000000000000000        0xa build/kernel/src/ipc.o
 .text.rt_mb_send
                0x0000000000000000        0xc build/kernel/src/ipc.o
 .text.rt_mb_send_interruptible
                0x0000000000000000        0xc build/kernel/src/ipc.o
 .text.rt_mb_send_killable
                0x0000000000000000        0xc build/kernel/src/ipc.o
 .text.rt_mb_urgent
                0x0000000000000000      0x11c build/kernel/src/ipc.o
 .text.rt_mb_recv
                0x0000000000000000        0xa build/kernel/src/ipc.o
 .text.rt_mb_recv_interruptible
                0x0000000000000000        0xa build/kernel/src/ipc.o
 .text.rt_mb_recv_killable
                0x0000000000000000        0xa build/kernel/src/ipc.o
 .text.rt_mb_control
                0x0000000000000000       0xdc build/kernel/src/ipc.o
 .text.rt_mq_init
                0x0000000000000000       0xfc build/kernel/src/ipc.o
 .rodata.rt_mq_detach.str1.8
                0x0000000000000000       0x2e build/kernel/src/ipc.o
 .text.rt_mq_detach
                0x0000000000000000       0xe8 build/kernel/src/ipc.o
 .text.rt_mq_create
                0x0000000000000000      0x124 build/kernel/src/ipc.o
 .rodata.rt_mq_delete.str1.8
                0x0000000000000000       0x3a build/kernel/src/ipc.o
 .text.rt_mq_delete
                0x0000000000000000      0x136 build/kernel/src/ipc.o
 .text.rt_mq_send_wait
                0x0000000000000000        0xa build/kernel/src/ipc.o
 .text.rt_mq_send_wait_interruptible
                0x0000000000000000        0xa build/kernel/src/ipc.o
 .text.rt_mq_send_wait_killable
                0x0000000000000000        0xa build/kernel/src/ipc.o
 .text.rt_mq_send
                0x0000000000000000        0xc build/kernel/src/ipc.o
 .text.rt_mq_send_interruptible
                0x0000000000000000        0xc build/kernel/src/ipc.o
 .text.rt_mq_send_killable
                0x0000000000000000        0xc build/kernel/src/ipc.o
 .text.rt_mq_urgent
                0x0000000000000000      0x19c build/kernel/src/ipc.o
 .text.rt_mq_recv
                0x0000000000000000        0xa build/kernel/src/ipc.o
 .text.rt_mq_recv_interruptible
                0x0000000000000000        0xa build/kernel/src/ipc.o
 .text.rt_mq_recv_killable
                0x0000000000000000        0xa build/kernel/src/ipc.o
 .text.rt_mq_control
                0x0000000000000000      0x100 build/kernel/src/ipc.o
 .rodata.__FUNCTION__.0
                0x0000000000000000        0xe build/kernel/src/ipc.o
 .rodata.__FUNCTION__.1
                0x0000000000000000        0xc build/kernel/src/ipc.o
 .rodata.__FUNCTION__.10
                0x0000000000000000        0xd build/kernel/src/ipc.o
 .rodata.__FUNCTION__.11
                0x0000000000000000       0x11 build/kernel/src/ipc.o
 .rodata.__FUNCTION__.12
                0x0000000000000000        0xd build/kernel/src/ipc.o
 .rodata.__FUNCTION__.13
                0x0000000000000000        0xd build/kernel/src/ipc.o
 .rodata.__FUNCTION__.14
                0x0000000000000000        0xd build/kernel/src/ipc.o
 .rodata.__FUNCTION__.15
                0x0000000000000000        0xb build/kernel/src/ipc.o
 .rodata.__FUNCTION__.16
                0x0000000000000000       0x11 build/kernel/src/ipc.o
 .rodata.__FUNCTION__.17
                0x0000000000000000        0xf build/kernel/src/ipc.o
 .rodata.__FUNCTION__.18
                0x0000000000000000        0xe build/kernel/src/ipc.o
 .rodata.__FUNCTION__.19
                0x0000000000000000       0x10 build/kernel/src/ipc.o
 .rodata.__FUNCTION__.2
                0x0000000000000000        0xd build/kernel/src/ipc.o
 .rodata.__FUNCTION__.20
                0x0000000000000000       0x10 build/kernel/src/ipc.o
 .rodata.__FUNCTION__.21
                0x0000000000000000       0x10 build/kernel/src/ipc.o
 .rodata.__FUNCTION__.22
                0x0000000000000000        0xe build/kernel/src/ipc.o
 .rodata.__FUNCTION__.25
                0x0000000000000000       0x10 build/kernel/src/ipc.o
 .rodata.__FUNCTION__.26
                0x0000000000000000       0x10 build/kernel/src/ipc.o
 .rodata.__FUNCTION__.27
                0x0000000000000000       0x18 build/kernel/src/ipc.o
 .rodata.__FUNCTION__.28
                0x0000000000000000       0x18 build/kernel/src/ipc.o
 .rodata.__FUNCTION__.3
                0x0000000000000000       0x11 build/kernel/src/ipc.o
 .rodata.__FUNCTION__.30
                0x0000000000000000       0x10 build/kernel/src/ipc.o
 .rodata.__FUNCTION__.35
                0x0000000000000000        0xe build/kernel/src/ipc.o
 .rodata.__FUNCTION__.36
                0x0000000000000000        0xe build/kernel/src/ipc.o
 .rodata.__FUNCTION__.37
                0x0000000000000000        0xe build/kernel/src/ipc.o
 .rodata.__FUNCTION__.4
                0x0000000000000000        0xd build/kernel/src/ipc.o
 .rodata.__FUNCTION__.5
                0x0000000000000000        0xd build/kernel/src/ipc.o
 .rodata.__FUNCTION__.6
                0x0000000000000000        0xd build/kernel/src/ipc.o
 .rodata.__FUNCTION__.7
                0x0000000000000000        0xb build/kernel/src/ipc.o
 .rodata.__FUNCTION__.8
                0x0000000000000000        0xe build/kernel/src/ipc.o
 .rodata.__FUNCTION__.9
                0x0000000000000000        0xc build/kernel/src/ipc.o
 .text          0x0000000000000000        0x0 build/kernel/src/irq.o
 .data          0x0000000000000000        0x0 build/kernel/src/irq.o
 .bss           0x0000000000000000        0x0 build/kernel/src/irq.o
 .text.rt_interrupt_enter_sethook
                0x0000000000000000        0xa build/kernel/src/irq.o
 .text.rt_interrupt_leave_sethook
                0x0000000000000000        0xa build/kernel/src/irq.o
 .text.rt_hw_interrupt_is_disabled
                0x0000000000000000        0x4 build/kernel/src/irq.o
 .text          0x0000000000000000        0x0 build/kernel/src/klibc/kstdio.o
 .data          0x0000000000000000        0x0 build/kernel/src/klibc/kstdio.o
 .bss           0x0000000000000000        0x0 build/kernel/src/klibc/kstdio.o
 .text.rt_vsprintf
                0x0000000000000000        0xe build/kernel/src/klibc/kstdio.o
 .text.rt_sprintf
                0x0000000000000000       0x2a build/kernel/src/klibc/kstdio.o
 .text.rt_get_errno
                0x0000000000000000       0x2e build/kernel/src/klibc/kstdio.o
 .text          0x0000000000000000        0x0 build/kernel/src/klibc/kstring.o
 .data          0x0000000000000000        0x0 build/kernel/src/klibc/kstring.o
 .bss           0x0000000000000000        0x0 build/kernel/src/klibc/kstring.o
 .text.rt_memcmp
                0x0000000000000000       0x24 build/kernel/src/klibc/kstring.o
 .text.rt_strstr
                0x0000000000000000       0x7e build/kernel/src/klibc/kstring.o
 .text.rt_strcasecmp
                0x0000000000000000       0x32 build/kernel/src/klibc/kstring.o
 .text.rt_strcpy
                0x0000000000000000       0x1c build/kernel/src/klibc/kstring.o
 .text.rt_strnlen
                0x0000000000000000       0x26 build/kernel/src/klibc/kstring.o
 .text.rt_strdup
                0x0000000000000000       0x4e build/kernel/src/klibc/kstring.o
 .text          0x0000000000000000        0x0 build/kernel/src/kservice.o
 .data          0x0000000000000000        0x0 build/kernel/src/kservice.o
 .bss           0x0000000000000000        0x0 build/kernel/src/kservice.o
 .rodata.rt_hw_cpu_arch.str1.8
                0x0000000000000000        0x8 build/kernel/src/kservice.o
 .text.rt_hw_cpu_arch
                0x0000000000000000        0xa build/kernel/src/kservice.o
 .text.rt_kputs
                0x0000000000000000       0x44 build/kernel/src/kservice.o
 .text.rt_hw_us_delay
                0x0000000000000000       0x38 build/kernel/src/kservice.o
 .rodata.rt_hw_cpu_reset.str1.8
                0x0000000000000000       0x71 build/kernel/src/kservice.o
 .text.rt_hw_cpu_reset
                0x0000000000000000       0x38 build/kernel/src/kservice.o
 .text.rt_backtrace_formatted_print
                0x0000000000000000       0x66 build/kernel/src/kservice.o
 .text.rt_backtrace_thread
                0x0000000000000000       0x36 build/kernel/src/kservice.o
 .text.rt_malloc_sethook
                0x0000000000000000        0xa build/kernel/src/kservice.o
 .text.rt_realloc_set_entry_hook
                0x0000000000000000        0xa build/kernel/src/kservice.o
 .text.rt_realloc_set_exit_hook
                0x0000000000000000        0xa build/kernel/src/kservice.o
 .text.rt_free_sethook
                0x0000000000000000        0xa build/kernel/src/kservice.o
 .text.rt_assert_set_hook
                0x0000000000000000        0xa build/kernel/src/kservice.o
 .rodata.rt_hw_cpu_shutdown.str1.8
                0x0000000000000000       0x6a build/kernel/src/kservice.o
 .text.rt_hw_cpu_shutdown
                0x0000000000000000       0x5c build/kernel/src/kservice.o
 .rodata.rt_backtrace_to_buffer.str1.8
                0x0000000000000000       0x3e build/kernel/src/kservice.o
 .text.rt_backtrace_to_buffer
                0x0000000000000000       0xb6 build/kernel/src/kservice.o
 .text.rt_free_align
                0x0000000000000000       0x10 build/kernel/src/kservice.o
 .text.rt_malloc_align
                0x0000000000000000       0x44 build/kernel/src/kservice.o
 .rodata.__FUNCTION__.2
                0x0000000000000000       0x17 build/kernel/src/kservice.o
 .rodata.__FUNCTION__.6
                0x0000000000000000       0x13 build/kernel/src/kservice.o
 .text          0x0000000000000000        0x0 build/kernel/src/mem.o
 .data          0x0000000000000000        0x0 build/kernel/src/mem.o
 .bss           0x0000000000000000        0x0 build/kernel/src/mem.o
 .text.rt_smem_detach
                0x0000000000000000       0xa4 build/kernel/src/mem.o
 .rodata.__FUNCTION__.4
                0x0000000000000000        0xf build/kernel/src/mem.o
 .text          0x0000000000000000        0x0 build/kernel/src/mempool.o
 .data          0x0000000000000000        0x0 build/kernel/src/mempool.o
 .bss           0x0000000000000000        0x0 build/kernel/src/mempool.o
 .text.rt_mp_alloc_sethook
                0x0000000000000000        0xa build/kernel/src/mempool.o
 .text.rt_mp_free_sethook
                0x0000000000000000        0xa build/kernel/src/mempool.o
 .rodata.rt_mp_init.str1.8
                0x0000000000000000       0x53 build/kernel/src/mempool.o
 .text.rt_mp_init
                0x0000000000000000      0x130 build/kernel/src/mempool.o
 .rodata.rt_mp_detach.str1.8
                0x0000000000000000       0x67 build/kernel/src/mempool.o
 .text.rt_mp_detach
                0x0000000000000000       0xc6 build/kernel/src/mempool.o
 .rodata.rt_mp_create.str1.8
                0x0000000000000000       0x52 build/kernel/src/mempool.o
 .text.rt_mp_create
                0x0000000000000000      0x132 build/kernel/src/mempool.o
 .rodata.rt_mp_delete.str1.8
                0x0000000000000000       0x33 build/kernel/src/mempool.o
 .text.rt_mp_delete
                0x0000000000000000      0x110 build/kernel/src/mempool.o
 .rodata.rt_mp_alloc.str1.8
                0x0000000000000000       0x15 build/kernel/src/mempool.o
 .text.rt_mp_alloc
                0x0000000000000000      0x1da build/kernel/src/mempool.o
 .text.rt_mp_free
                0x0000000000000000       0x92 build/kernel/src/mempool.o
 .rodata.__FUNCTION__.0
                0x0000000000000000        0xc build/kernel/src/mempool.o
 .rodata.__FUNCTION__.1
                0x0000000000000000        0xd build/kernel/src/mempool.o
 .rodata.__FUNCTION__.2
                0x0000000000000000        0xd build/kernel/src/mempool.o
 .rodata.__FUNCTION__.3
                0x0000000000000000        0xd build/kernel/src/mempool.o
 .rodata.__FUNCTION__.4
                0x0000000000000000        0xb build/kernel/src/mempool.o
 .sbss.rt_mp_alloc_hook
                0x0000000000000000        0x8 build/kernel/src/mempool.o
 .sbss.rt_mp_free_hook
                0x0000000000000000        0x8 build/kernel/src/mempool.o
 .debug_info    0x0000000000000000     0x126d build/kernel/src/mempool.o
 .debug_abbrev  0x0000000000000000      0x331 build/kernel/src/mempool.o
 .debug_loc     0x0000000000000000      0xb74 build/kernel/src/mempool.o
 .debug_aranges
                0x0000000000000000       0xa0 build/kernel/src/mempool.o
 .debug_ranges  0x0000000000000000       0xc0 build/kernel/src/mempool.o
 .debug_line    0x0000000000000000      0xf2a build/kernel/src/mempool.o
 .debug_str     0x0000000000000000      0x8c8 build/kernel/src/mempool.o
 .comment       0x0000000000000000       0x46 build/kernel/src/mempool.o
 .debug_frame   0x0000000000000000      0x1c0 build/kernel/src/mempool.o
 .riscv.attributes
                0x0000000000000000       0x35 build/kernel/src/mempool.o
 .text          0x0000000000000000        0x0 build/kernel/src/object.o
 .data          0x0000000000000000        0x0 build/kernel/src/object.o
 .bss           0x0000000000000000        0x0 build/kernel/src/object.o
 .text.rt_object_attach_sethook
                0x0000000000000000        0xa build/kernel/src/object.o
 .text.rt_object_detach_sethook
                0x0000000000000000        0xa build/kernel/src/object.o
 .text.rt_object_trytake_sethook
                0x0000000000000000        0xa build/kernel/src/object.o
 .text.rt_object_take_sethook
                0x0000000000000000        0xa build/kernel/src/object.o
 .text.rt_object_put_sethook
                0x0000000000000000        0xa build/kernel/src/object.o
 .text.rt_object_get_length
                0x0000000000000000       0x8a build/kernel/src/object.o
 .text.rt_object_get_pointers
                0x0000000000000000       0xb4 build/kernel/src/object.o
 .text.rt_object_get_name
                0x0000000000000000       0x24 build/kernel/src/object.o
 .text.rt_custom_object_create
                0x0000000000000000       0x28 build/kernel/src/object.o
 .text.rt_custom_object_destroy
                0x0000000000000000       0x3c build/kernel/src/object.o
 .text          0x0000000000000000        0x0 build/kernel/src/scheduler_comm.o
 .data          0x0000000000000000        0x0 build/kernel/src/scheduler_comm.o
 .bss           0x0000000000000000        0x0 build/kernel/src/scheduler_comm.o
 .text.rt_sched_thread_yield
                0x0000000000000000       0x18 build/kernel/src/scheduler_comm.o
 .text          0x0000000000000000        0x0 build/kernel/src/scheduler_up.o
 .data          0x0000000000000000        0x0 build/kernel/src/scheduler_up.o
 .bss           0x0000000000000000        0x0 build/kernel/src/scheduler_up.o
 .text.rt_scheduler_sethook
                0x0000000000000000        0xa build/kernel/src/scheduler_up.o
 .text.rt_scheduler_switch_sethook
                0x0000000000000000        0xa build/kernel/src/scheduler_up.o
 .text          0x0000000000000000        0x0 build/kernel/src/thread.o
 .data          0x0000000000000000        0x0 build/kernel/src/thread.o
 .bss           0x0000000000000000        0x0 build/kernel/src/thread.o
 .text.rt_thread_suspend_sethook
                0x0000000000000000        0xa build/kernel/src/thread.o
 .text.rt_thread_resume_sethook
                0x0000000000000000        0xa build/kernel/src/thread.o
 .text.rt_thread_yield
                0x0000000000000000       0x32 build/kernel/src/thread.o
 .rodata._thread_sleep.str1.8
                0x0000000000000000       0x8f build/kernel/src/thread.o
 .text._thread_sleep
                0x0000000000000000      0x1bc build/kernel/src/thread.o
 .text.rt_thread_delay
                0x0000000000000000        0x8 build/kernel/src/thread.o
 .text.rt_thread_mdelay
                0x0000000000000000       0x1a build/kernel/src/thread.o
 .rodata.rt_thread_delay_until.str1.8
                0x0000000000000000       0x10 build/kernel/src/thread.o
 .text.rt_thread_delay_until
                0x0000000000000000      0x14c build/kernel/src/thread.o
 .text.rt_thread_suspend
                0x0000000000000000        0xe build/kernel/src/thread.o
 .text.rt_thread_find
                0x0000000000000000        0xa build/kernel/src/thread.o
 .text.rt_thread_get_name
                0x0000000000000000        0xe build/kernel/src/thread.o
 .rodata.__FUNCTION__.4
                0x0000000000000000       0x16 build/kernel/src/thread.o
 .rodata.__FUNCTION__.5
                0x0000000000000000        0xe build/kernel/src/thread.o
 .text          0x0000000000000000        0x0 build/kernel/src/timer.o
 .data          0x0000000000000000        0x0 build/kernel/src/timer.o
 .bss           0x0000000000000000        0x0 build/kernel/src/timer.o
 .text.rt_timer_enter_sethook
                0x0000000000000000        0xa build/kernel/src/timer.o
 .text.rt_timer_exit_sethook
                0x0000000000000000        0xa build/kernel/src/timer.o
 .text.rt_timer_create
                0x0000000000000000       0x9e build/kernel/src/timer.o
 .rodata.rt_timer_delete.str1.8
                0x0000000000000000       0x36 build/kernel/src/timer.o
 .text.rt_timer_delete
                0x0000000000000000       0xde build/kernel/src/timer.o
 .text.rt_timer_next_timeout_tick
                0x0000000000000000       0x82 build/kernel/src/timer.o
 .rodata.__FUNCTION__.5
                0x0000000000000000       0x10 build/kernel/src/timer.o
 .rodata.__FUNCTION__.6
                0x0000000000000000       0x10 build/kernel/src/timer.o
 .data          0x0000000000000000        0x0 /opt/Xuantie-900-gcc-elf-newlib-x86_64-V2.8.1/bin/../lib/gcc/riscv64-unknown-elf/10.4.0/../../../../riscv64-unknown-elf/lib/rv64imafdc/lp64d/libc.a(lib_a-atoi.o)
 .bss           0x0000000000000000        0x0 /opt/Xuantie-900-gcc-elf-newlib-x86_64-V2.8.1/bin/../lib/gcc/riscv64-unknown-elf/10.4.0/../../../../riscv64-unknown-elf/lib/rv64imafdc/lp64d/libc.a(lib_a-atoi.o)
 .text          0x0000000000000000        0x0 /opt/Xuantie-900-gcc-elf-newlib-x86_64-V2.8.1/bin/../lib/gcc/riscv64-unknown-elf/10.4.0/../../../../riscv64-unknown-elf/lib/rv64imafdc/lp64d/libc.a(lib_a-ctype_.o)
 .data          0x0000000000000000        0x0 /opt/Xuantie-900-gcc-elf-newlib-x86_64-V2.8.1/bin/../lib/gcc/riscv64-unknown-elf/10.4.0/../../../../riscv64-unknown-elf/lib/rv64imafdc/lp64d/libc.a(lib_a-ctype_.o)
 .bss           0x0000000000000000        0x0 /opt/Xuantie-900-gcc-elf-newlib-x86_64-V2.8.1/bin/../lib/gcc/riscv64-unknown-elf/10.4.0/../../../../riscv64-unknown-elf/lib/rv64imafdc/lp64d/libc.a(lib_a-ctype_.o)
 .text          0x0000000000000000       0x24 /opt/Xuantie-900-gcc-elf-newlib-x86_64-V2.8.1/bin/../lib/gcc/riscv64-unknown-elf/10.4.0/../../../../riscv64-unknown-elf/lib/rv64imafdc/lp64d/libc.a(lib_a-malloc.o)
 .data          0x0000000000000000        0x0 /opt/Xuantie-900-gcc-elf-newlib-x86_64-V2.8.1/bin/../lib/gcc/riscv64-unknown-elf/10.4.0/../../../../riscv64-unknown-elf/lib/rv64imafdc/lp64d/libc.a(lib_a-malloc.o)
 .bss           0x0000000000000000        0x0 /opt/Xuantie-900-gcc-elf-newlib-x86_64-V2.8.1/bin/../lib/gcc/riscv64-unknown-elf/10.4.0/../../../../riscv64-unknown-elf/lib/rv64imafdc/lp64d/libc.a(lib_a-malloc.o)
 .comment       0x0000000000000000       0x13 /opt/Xuantie-900-gcc-elf-newlib-x86_64-V2.8.1/bin/../lib/gcc/riscv64-unknown-elf/10.4.0/../../../../riscv64-unknown-elf/lib/rv64imafdc/lp64d/libc.a(lib_a-malloc.o)
 .riscv.attributes
                0x0000000000000000       0x35 /opt/Xuantie-900-gcc-elf-newlib-x86_64-V2.8.1/bin/../lib/gcc/riscv64-unknown-elf/10.4.0/../../../../riscv64-unknown-elf/lib/rv64imafdc/lp64d/libc.a(lib_a-malloc.o)
 .data          0x0000000000000000        0x0 /opt/Xuantie-900-gcc-elf-newlib-x86_64-V2.8.1/bin/../lib/gcc/riscv64-unknown-elf/10.4.0/../../../../riscv64-unknown-elf/lib/rv64imafdc/lp64d/libc.a(lib_a-memcmp.o)
 .bss           0x0000000000000000        0x0 /opt/Xuantie-900-gcc-elf-newlib-x86_64-V2.8.1/bin/../lib/gcc/riscv64-unknown-elf/10.4.0/../../../../riscv64-unknown-elf/lib/rv64imafdc/lp64d/libc.a(lib_a-memcmp.o)
 .data          0x0000000000000000        0x0 /opt/Xuantie-900-gcc-elf-newlib-x86_64-V2.8.1/bin/../lib/gcc/riscv64-unknown-elf/10.4.0/../../../../riscv64-unknown-elf/lib/rv64imafdc/lp64d/libc.a(lib_a-memset.o)
 .bss           0x0000000000000000        0x0 /opt/Xuantie-900-gcc-elf-newlib-x86_64-V2.8.1/bin/../lib/gcc/riscv64-unknown-elf/10.4.0/../../../../riscv64-unknown-elf/lib/rv64imafdc/lp64d/libc.a(lib_a-memset.o)
 .data          0x0000000000000000        0x0 /opt/Xuantie-900-gcc-elf-newlib-x86_64-V2.8.1/bin/../lib/gcc/riscv64-unknown-elf/10.4.0/../../../../riscv64-unknown-elf/lib/rv64imafdc/lp64d/libc.a(lib_a-printf.o)
 .bss           0x0000000000000000        0x0 /opt/Xuantie-900-gcc-elf-newlib-x86_64-V2.8.1/bin/../lib/gcc/riscv64-unknown-elf/10.4.0/../../../../riscv64-unknown-elf/lib/rv64imafdc/lp64d/libc.a(lib_a-printf.o)
 .data          0x0000000000000000        0x0 /opt/Xuantie-900-gcc-elf-newlib-x86_64-V2.8.1/bin/../lib/gcc/riscv64-unknown-elf/10.4.0/../../../../riscv64-unknown-elf/lib/rv64imafdc/lp64d/libc.a(lib_a-strchr.o)
 .bss           0x0000000000000000        0x0 /opt/Xuantie-900-gcc-elf-newlib-x86_64-V2.8.1/bin/../lib/gcc/riscv64-unknown-elf/10.4.0/../../../../riscv64-unknown-elf/lib/rv64imafdc/lp64d/libc.a(lib_a-strchr.o)
 .data          0x0000000000000000        0x0 /opt/Xuantie-900-gcc-elf-newlib-x86_64-V2.8.1/bin/../lib/gcc/riscv64-unknown-elf/10.4.0/../../../../riscv64-unknown-elf/lib/rv64imafdc/lp64d/libc.a(lib_a-strcmp.o)
 .bss           0x0000000000000000        0x0 /opt/Xuantie-900-gcc-elf-newlib-x86_64-V2.8.1/bin/../lib/gcc/riscv64-unknown-elf/10.4.0/../../../../riscv64-unknown-elf/lib/rv64imafdc/lp64d/libc.a(lib_a-strcmp.o)
 .data          0x0000000000000000        0x0 /opt/Xuantie-900-gcc-elf-newlib-x86_64-V2.8.1/bin/../lib/gcc/riscv64-unknown-elf/10.4.0/../../../../riscv64-unknown-elf/lib/rv64imafdc/lp64d/libc.a(lib_a-strcpy.o)
 .bss           0x0000000000000000        0x0 /opt/Xuantie-900-gcc-elf-newlib-x86_64-V2.8.1/bin/../lib/gcc/riscv64-unknown-elf/10.4.0/../../../../riscv64-unknown-elf/lib/rv64imafdc/lp64d/libc.a(lib_a-strcpy.o)
 .data          0x0000000000000000        0x0 /opt/Xuantie-900-gcc-elf-newlib-x86_64-V2.8.1/bin/../lib/gcc/riscv64-unknown-elf/10.4.0/../../../../riscv64-unknown-elf/lib/rv64imafdc/lp64d/libc.a(lib_a-strlen.o)
 .bss           0x0000000000000000        0x0 /opt/Xuantie-900-gcc-elf-newlib-x86_64-V2.8.1/bin/../lib/gcc/riscv64-unknown-elf/10.4.0/../../../../riscv64-unknown-elf/lib/rv64imafdc/lp64d/libc.a(lib_a-strlen.o)
 .data          0x0000000000000000        0x0 /opt/Xuantie-900-gcc-elf-newlib-x86_64-V2.8.1/bin/../lib/gcc/riscv64-unknown-elf/10.4.0/../../../../riscv64-unknown-elf/lib/rv64imafdc/lp64d/libc.a(lib_a-strncmp.o)
 .bss           0x0000000000000000        0x0 /opt/Xuantie-900-gcc-elf-newlib-x86_64-V2.8.1/bin/../lib/gcc/riscv64-unknown-elf/10.4.0/../../../../riscv64-unknown-elf/lib/rv64imafdc/lp64d/libc.a(lib_a-strncmp.o)
 .data          0x0000000000000000        0x0 /opt/Xuantie-900-gcc-elf-newlib-x86_64-V2.8.1/bin/../lib/gcc/riscv64-unknown-elf/10.4.0/../../../../riscv64-unknown-elf/lib/rv64imafdc/lp64d/libc.a(lib_a-strncpy.o)
 .bss           0x0000000000000000        0x0 /opt/Xuantie-900-gcc-elf-newlib-x86_64-V2.8.1/bin/../lib/gcc/riscv64-unknown-elf/10.4.0/../../../../riscv64-unknown-elf/lib/rv64imafdc/lp64d/libc.a(lib_a-strncpy.o)
 .text          0x0000000000000000       0x3a /opt/Xuantie-900-gcc-elf-newlib-x86_64-V2.8.1/bin/../lib/gcc/riscv64-unknown-elf/10.4.0/../../../../riscv64-unknown-elf/lib/rv64imafdc/lp64d/libc.a(lib_a-strrchr.o)
 .data          0x0000000000000000        0x0 /opt/Xuantie-900-gcc-elf-newlib-x86_64-V2.8.1/bin/../lib/gcc/riscv64-unknown-elf/10.4.0/../../../../riscv64-unknown-elf/lib/rv64imafdc/lp64d/libc.a(lib_a-strrchr.o)
 .bss           0x0000000000000000        0x0 /opt/Xuantie-900-gcc-elf-newlib-x86_64-V2.8.1/bin/../lib/gcc/riscv64-unknown-elf/10.4.0/../../../../riscv64-unknown-elf/lib/rv64imafdc/lp64d/libc.a(lib_a-strrchr.o)
 .comment       0x0000000000000000       0x13 /opt/Xuantie-900-gcc-elf-newlib-x86_64-V2.8.1/bin/../lib/gcc/riscv64-unknown-elf/10.4.0/../../../../riscv64-unknown-elf/lib/rv64imafdc/lp64d/libc.a(lib_a-strrchr.o)
 .riscv.attributes
                0x0000000000000000       0x35 /opt/Xuantie-900-gcc-elf-newlib-x86_64-V2.8.1/bin/../lib/gcc/riscv64-unknown-elf/10.4.0/../../../../riscv64-unknown-elf/lib/rv64imafdc/lp64d/libc.a(lib_a-strrchr.o)
 .data          0x0000000000000000        0x0 /opt/Xuantie-900-gcc-elf-newlib-x86_64-V2.8.1/bin/../lib/gcc/riscv64-unknown-elf/10.4.0/../../../../riscv64-unknown-elf/lib/rv64imafdc/lp64d/libc.a(lib_a-strtol.o)
 .bss           0x0000000000000000        0x0 /opt/Xuantie-900-gcc-elf-newlib-x86_64-V2.8.1/bin/../lib/gcc/riscv64-unknown-elf/10.4.0/../../../../riscv64-unknown-elf/lib/rv64imafdc/lp64d/libc.a(lib_a-strtol.o)
 .data          0x0000000000000000        0x0 /opt/Xuantie-900-gcc-elf-newlib-x86_64-V2.8.1/bin/../lib/gcc/riscv64-unknown-elf/10.4.0/../../../../riscv64-unknown-elf/lib/rv64imafdc/lp64d/libc.a(lib_a-strtoul.o)
 .bss           0x0000000000000000        0x0 /opt/Xuantie-900-gcc-elf-newlib-x86_64-V2.8.1/bin/../lib/gcc/riscv64-unknown-elf/10.4.0/../../../../riscv64-unknown-elf/lib/rv64imafdc/lp64d/libc.a(lib_a-strtoul.o)
 .data          0x0000000000000000        0x0 /opt/Xuantie-900-gcc-elf-newlib-x86_64-V2.8.1/bin/../lib/gcc/riscv64-unknown-elf/10.4.0/../../../../riscv64-unknown-elf/lib/rv64imafdc/lp64d/libc.a(lib_a-vfprintf.o)
 .bss           0x0000000000000000        0x0 /opt/Xuantie-900-gcc-elf-newlib-x86_64-V2.8.1/bin/../lib/gcc/riscv64-unknown-elf/10.4.0/../../../../riscv64-unknown-elf/lib/rv64imafdc/lp64d/libc.a(lib_a-vfprintf.o)
 .data          0x0000000000000000        0x0 /opt/Xuantie-900-gcc-elf-newlib-x86_64-V2.8.1/bin/../lib/gcc/riscv64-unknown-elf/10.4.0/../../../../riscv64-unknown-elf/lib/rv64imafdc/lp64d/libc.a(lib_a-wsetup.o)
 .bss           0x0000000000000000        0x0 /opt/Xuantie-900-gcc-elf-newlib-x86_64-V2.8.1/bin/../lib/gcc/riscv64-unknown-elf/10.4.0/../../../../riscv64-unknown-elf/lib/rv64imafdc/lp64d/libc.a(lib_a-wsetup.o)
 .data          0x0000000000000000        0x0 /opt/Xuantie-900-gcc-elf-newlib-x86_64-V2.8.1/bin/../lib/gcc/riscv64-unknown-elf/10.4.0/../../../../riscv64-unknown-elf/lib/rv64imafdc/lp64d/libc.a(lib_a-fflush.o)
 .bss           0x0000000000000000        0x0 /opt/Xuantie-900-gcc-elf-newlib-x86_64-V2.8.1/bin/../lib/gcc/riscv64-unknown-elf/10.4.0/../../../../riscv64-unknown-elf/lib/rv64imafdc/lp64d/libc.a(lib_a-fflush.o)
 .data          0x0000000000000000        0x0 /opt/Xuantie-900-gcc-elf-newlib-x86_64-V2.8.1/bin/../lib/gcc/riscv64-unknown-elf/10.4.0/../../../../riscv64-unknown-elf/lib/rv64imafdc/lp64d/libc.a(lib_a-findfp.o)
 .bss           0x0000000000000000        0x0 /opt/Xuantie-900-gcc-elf-newlib-x86_64-V2.8.1/bin/../lib/gcc/riscv64-unknown-elf/10.4.0/../../../../riscv64-unknown-elf/lib/rv64imafdc/lp64d/libc.a(lib_a-findfp.o)
 .data          0x0000000000000000        0x0 /opt/Xuantie-900-gcc-elf-newlib-x86_64-V2.8.1/bin/../lib/gcc/riscv64-unknown-elf/10.4.0/../../../../riscv64-unknown-elf/lib/rv64imafdc/lp64d/libc.a(lib_a-fwalk.o)
 .bss           0x0000000000000000        0x0 /opt/Xuantie-900-gcc-elf-newlib-x86_64-V2.8.1/bin/../lib/gcc/riscv64-unknown-elf/10.4.0/../../../../riscv64-unknown-elf/lib/rv64imafdc/lp64d/libc.a(lib_a-fwalk.o)
 .text          0x0000000000000000        0x0 /opt/Xuantie-900-gcc-elf-newlib-x86_64-V2.8.1/bin/../lib/gcc/riscv64-unknown-elf/10.4.0/../../../../riscv64-unknown-elf/lib/rv64imafdc/lp64d/libc.a(lib_a-impure.o)
 .bss           0x0000000000000000        0x0 /opt/Xuantie-900-gcc-elf-newlib-x86_64-V2.8.1/bin/../lib/gcc/riscv64-unknown-elf/10.4.0/../../../../riscv64-unknown-elf/lib/rv64imafdc/lp64d/libc.a(lib_a-impure.o)
 .data          0x0000000000000000        0x0 /opt/Xuantie-900-gcc-elf-newlib-x86_64-V2.8.1/bin/../lib/gcc/riscv64-unknown-elf/10.4.0/../../../../riscv64-unknown-elf/lib/rv64imafdc/lp64d/libc.a(lib_a-ldtoa.o)
 .bss           0x0000000000000000        0x0 /opt/Xuantie-900-gcc-elf-newlib-x86_64-V2.8.1/bin/../lib/gcc/riscv64-unknown-elf/10.4.0/../../../../riscv64-unknown-elf/lib/rv64imafdc/lp64d/libc.a(lib_a-ldtoa.o)
 .data          0x0000000000000000        0x0 /opt/Xuantie-900-gcc-elf-newlib-x86_64-V2.8.1/bin/../lib/gcc/riscv64-unknown-elf/10.4.0/../../../../riscv64-unknown-elf/lib/rv64imafdc/lp64d/libc.a(lib_a-localeconv.o)
 .bss           0x0000000000000000        0x0 /opt/Xuantie-900-gcc-elf-newlib-x86_64-V2.8.1/bin/../lib/gcc/riscv64-unknown-elf/10.4.0/../../../../riscv64-unknown-elf/lib/rv64imafdc/lp64d/libc.a(lib_a-localeconv.o)
 .data          0x0000000000000000        0x0 /opt/Xuantie-900-gcc-elf-newlib-x86_64-V2.8.1/bin/../lib/gcc/riscv64-unknown-elf/10.4.0/../../../../riscv64-unknown-elf/lib/rv64imafdc/lp64d/libc.a(lib_a-lock.o)
 .bss           0x0000000000000000        0x0 /opt/Xuantie-900-gcc-elf-newlib-x86_64-V2.8.1/bin/../lib/gcc/riscv64-unknown-elf/10.4.0/../../../../riscv64-unknown-elf/lib/rv64imafdc/lp64d/libc.a(lib_a-lock.o)
 .data          0x0000000000000000        0x0 /opt/Xuantie-900-gcc-elf-newlib-x86_64-V2.8.1/bin/../lib/gcc/riscv64-unknown-elf/10.4.0/../../../../riscv64-unknown-elf/lib/rv64imafdc/lp64d/libc.a(lib_a-makebuf.o)
 .bss           0x0000000000000000        0x0 /opt/Xuantie-900-gcc-elf-newlib-x86_64-V2.8.1/bin/../lib/gcc/riscv64-unknown-elf/10.4.0/../../../../riscv64-unknown-elf/lib/rv64imafdc/lp64d/libc.a(lib_a-makebuf.o)
 .data          0x0000000000000000        0x0 /opt/Xuantie-900-gcc-elf-newlib-x86_64-V2.8.1/bin/../lib/gcc/riscv64-unknown-elf/10.4.0/../../../../riscv64-unknown-elf/lib/rv64imafdc/lp64d/libc.a(lib_a-memchr.o)
 .bss           0x0000000000000000        0x0 /opt/Xuantie-900-gcc-elf-newlib-x86_64-V2.8.1/bin/../lib/gcc/riscv64-unknown-elf/10.4.0/../../../../riscv64-unknown-elf/lib/rv64imafdc/lp64d/libc.a(lib_a-memchr.o)
 .data          0x0000000000000000        0x0 /opt/Xuantie-900-gcc-elf-newlib-x86_64-V2.8.1/bin/../lib/gcc/riscv64-unknown-elf/10.4.0/../../../../riscv64-unknown-elf/lib/rv64imafdc/lp64d/libc.a(lib_a-mprec.o)
 .bss           0x0000000000000000        0x0 /opt/Xuantie-900-gcc-elf-newlib-x86_64-V2.8.1/bin/../lib/gcc/riscv64-unknown-elf/10.4.0/../../../../riscv64-unknown-elf/lib/rv64imafdc/lp64d/libc.a(lib_a-mprec.o)
 .data          0x0000000000000000        0x0 /opt/Xuantie-900-gcc-elf-newlib-x86_64-V2.8.1/bin/../lib/gcc/riscv64-unknown-elf/10.4.0/../../../../riscv64-unknown-elf/lib/rv64imafdc/lp64d/libc.a(lib_a-s_frexp.o)
 .bss           0x0000000000000000        0x0 /opt/Xuantie-900-gcc-elf-newlib-x86_64-V2.8.1/bin/../lib/gcc/riscv64-unknown-elf/10.4.0/../../../../riscv64-unknown-elf/lib/rv64imafdc/lp64d/libc.a(lib_a-s_frexp.o)
 .data          0x0000000000000000        0x0 /opt/Xuantie-900-gcc-elf-newlib-x86_64-V2.8.1/bin/../lib/gcc/riscv64-unknown-elf/10.4.0/../../../../riscv64-unknown-elf/lib/rv64imafdc/lp64d/libc.a(lib_a-sprintf.o)
 .bss           0x0000000000000000        0x0 /opt/Xuantie-900-gcc-elf-newlib-x86_64-V2.8.1/bin/../lib/gcc/riscv64-unknown-elf/10.4.0/../../../../riscv64-unknown-elf/lib/rv64imafdc/lp64d/libc.a(lib_a-sprintf.o)
 .data          0x0000000000000000        0x0 /opt/Xuantie-900-gcc-elf-newlib-x86_64-V2.8.1/bin/../lib/gcc/riscv64-unknown-elf/10.4.0/../../../../riscv64-unknown-elf/lib/rv64imafdc/lp64d/libc.a(lib_a-stdio.o)
 .bss           0x0000000000000000        0x0 /opt/Xuantie-900-gcc-elf-newlib-x86_64-V2.8.1/bin/../lib/gcc/riscv64-unknown-elf/10.4.0/../../../../riscv64-unknown-elf/lib/rv64imafdc/lp64d/libc.a(lib_a-stdio.o)
 .data          0x0000000000000000        0x0 /opt/Xuantie-900-gcc-elf-newlib-x86_64-V2.8.1/bin/../lib/gcc/riscv64-unknown-elf/10.4.0/../../../../riscv64-unknown-elf/lib/rv64imafdc/lp64d/libc.a(lib_a-svfprintf.o)
 .bss           0x0000000000000000        0x0 /opt/Xuantie-900-gcc-elf-newlib-x86_64-V2.8.1/bin/../lib/gcc/riscv64-unknown-elf/10.4.0/../../../../riscv64-unknown-elf/lib/rv64imafdc/lp64d/libc.a(lib_a-svfprintf.o)
 .data          0x0000000000000000        0x0 /opt/Xuantie-900-gcc-elf-newlib-x86_64-V2.8.1/bin/../lib/gcc/riscv64-unknown-elf/10.4.0/../../../../riscv64-unknown-elf/lib/rv64imafdc/lp64d/libc.a(lib_a-vfiprintf.o)
 .bss           0x0000000000000000        0x0 /opt/Xuantie-900-gcc-elf-newlib-x86_64-V2.8.1/bin/../lib/gcc/riscv64-unknown-elf/10.4.0/../../../../riscv64-unknown-elf/lib/rv64imafdc/lp64d/libc.a(lib_a-vfiprintf.o)
 .data          0x0000000000000000        0x0 /opt/Xuantie-900-gcc-elf-newlib-x86_64-V2.8.1/bin/../lib/gcc/riscv64-unknown-elf/10.4.0/../../../../riscv64-unknown-elf/lib/rv64imafdc/lp64d/libc.a(lib_a-assert.o)
 .bss           0x0000000000000000        0x0 /opt/Xuantie-900-gcc-elf-newlib-x86_64-V2.8.1/bin/../lib/gcc/riscv64-unknown-elf/10.4.0/../../../../riscv64-unknown-elf/lib/rv64imafdc/lp64d/libc.a(lib_a-assert.o)
 .data          0x0000000000000000        0x0 /opt/Xuantie-900-gcc-elf-newlib-x86_64-V2.8.1/bin/../lib/gcc/riscv64-unknown-elf/10.4.0/../../../../riscv64-unknown-elf/lib/rv64imafdc/lp64d/libc.a(lib_a-fclose.o)
 .bss           0x0000000000000000        0x0 /opt/Xuantie-900-gcc-elf-newlib-x86_64-V2.8.1/bin/../lib/gcc/riscv64-unknown-elf/10.4.0/../../../../riscv64-unknown-elf/lib/rv64imafdc/lp64d/libc.a(lib_a-fclose.o)
 .data          0x0000000000000000        0x0 /opt/Xuantie-900-gcc-elf-newlib-x86_64-V2.8.1/bin/../lib/gcc/riscv64-unknown-elf/10.4.0/../../../../riscv64-unknown-elf/lib/rv64imafdc/lp64d/libc.a(lib_a-fiprintf.o)
 .bss           0x0000000000000000        0x0 /opt/Xuantie-900-gcc-elf-newlib-x86_64-V2.8.1/bin/../lib/gcc/riscv64-unknown-elf/10.4.0/../../../../riscv64-unknown-elf/lib/rv64imafdc/lp64d/libc.a(lib_a-fiprintf.o)
 .data          0x0000000000000000        0x0 /opt/Xuantie-900-gcc-elf-newlib-x86_64-V2.8.1/bin/../lib/gcc/riscv64-unknown-elf/10.4.0/../../../../riscv64-unknown-elf/lib/rv64imafdc/lp64d/libc.a(lib_a-fputwc.o)
 .bss           0x0000000000000000        0x0 /opt/Xuantie-900-gcc-elf-newlib-x86_64-V2.8.1/bin/../lib/gcc/riscv64-unknown-elf/10.4.0/../../../../riscv64-unknown-elf/lib/rv64imafdc/lp64d/libc.a(lib_a-fputwc.o)
 .data          0x0000000000000000        0x0 /opt/Xuantie-900-gcc-elf-newlib-x86_64-V2.8.1/bin/../lib/gcc/riscv64-unknown-elf/10.4.0/../../../../riscv64-unknown-elf/lib/rv64imafdc/lp64d/libc.a(lib_a-fvwrite.o)
 .bss           0x0000000000000000        0x0 /opt/Xuantie-900-gcc-elf-newlib-x86_64-V2.8.1/bin/../lib/gcc/riscv64-unknown-elf/10.4.0/../../../../riscv64-unknown-elf/lib/rv64imafdc/lp64d/libc.a(lib_a-fvwrite.o)
 .bss           0x0000000000000000        0x0 /opt/Xuantie-900-gcc-elf-newlib-x86_64-V2.8.1/bin/../lib/gcc/riscv64-unknown-elf/10.4.0/../../../../riscv64-unknown-elf/lib/rv64imafdc/lp64d/libc.a(lib_a-locale.o)
 .sbss          0x0000000000000000        0x8 /opt/Xuantie-900-gcc-elf-newlib-x86_64-V2.8.1/bin/../lib/gcc/riscv64-unknown-elf/10.4.0/../../../../riscv64-unknown-elf/lib/rv64imafdc/lp64d/libc.a(lib_a-locale.o)
 .data          0x0000000000000000        0x0 /opt/Xuantie-900-gcc-elf-newlib-x86_64-V2.8.1/bin/../lib/gcc/riscv64-unknown-elf/10.4.0/../../../../riscv64-unknown-elf/lib/rv64imafdc/lp64d/libc.a(lib_a-mbtowc_r.o)
 .bss           0x0000000000000000        0x0 /opt/Xuantie-900-gcc-elf-newlib-x86_64-V2.8.1/bin/../lib/gcc/riscv64-unknown-elf/10.4.0/../../../../riscv64-unknown-elf/lib/rv64imafdc/lp64d/libc.a(lib_a-mbtowc_r.o)
 .data          0x0000000000000000        0x0 /opt/Xuantie-900-gcc-elf-newlib-x86_64-V2.8.1/bin/../lib/gcc/riscv64-unknown-elf/10.4.0/../../../../riscv64-unknown-elf/lib/rv64imafdc/lp64d/libc.a(lib_a-memcpy-asm.o)
 .bss           0x0000000000000000        0x0 /opt/Xuantie-900-gcc-elf-newlib-x86_64-V2.8.1/bin/../lib/gcc/riscv64-unknown-elf/10.4.0/../../../../riscv64-unknown-elf/lib/rv64imafdc/lp64d/libc.a(lib_a-memcpy-asm.o)
 .data          0x0000000000000000        0x0 /opt/Xuantie-900-gcc-elf-newlib-x86_64-V2.8.1/bin/../lib/gcc/riscv64-unknown-elf/10.4.0/../../../../riscv64-unknown-elf/lib/rv64imafdc/lp64d/libc.a(lib_a-memmove-stub.o)
 .bss           0x0000000000000000        0x0 /opt/Xuantie-900-gcc-elf-newlib-x86_64-V2.8.1/bin/../lib/gcc/riscv64-unknown-elf/10.4.0/../../../../riscv64-unknown-elf/lib/rv64imafdc/lp64d/libc.a(lib_a-memmove-stub.o)
 .data          0x0000000000000000        0x0 /opt/Xuantie-900-gcc-elf-newlib-x86_64-V2.8.1/bin/../lib/gcc/riscv64-unknown-elf/10.4.0/../../../../riscv64-unknown-elf/lib/rv64imafdc/lp64d/libc.a(lib_a-svfiprintf.o)
 .bss           0x0000000000000000        0x0 /opt/Xuantie-900-gcc-elf-newlib-x86_64-V2.8.1/bin/../lib/gcc/riscv64-unknown-elf/10.4.0/../../../../riscv64-unknown-elf/lib/rv64imafdc/lp64d/libc.a(lib_a-svfiprintf.o)
 .data          0x0000000000000000        0x0 /opt/Xuantie-900-gcc-elf-newlib-x86_64-V2.8.1/bin/../lib/gcc/riscv64-unknown-elf/10.4.0/../../../../riscv64-unknown-elf/lib/rv64imafdc/lp64d/libc.a(lib_a-wbuf.o)
 .bss           0x0000000000000000        0x0 /opt/Xuantie-900-gcc-elf-newlib-x86_64-V2.8.1/bin/../lib/gcc/riscv64-unknown-elf/10.4.0/../../../../riscv64-unknown-elf/lib/rv64imafdc/lp64d/libc.a(lib_a-wbuf.o)
 .data          0x0000000000000000        0x0 /opt/Xuantie-900-gcc-elf-newlib-x86_64-V2.8.1/bin/../lib/gcc/riscv64-unknown-elf/10.4.0/../../../../riscv64-unknown-elf/lib/rv64imafdc/lp64d/libc.a(lib_a-wcrtomb.o)
 .bss           0x0000000000000000        0x0 /opt/Xuantie-900-gcc-elf-newlib-x86_64-V2.8.1/bin/../lib/gcc/riscv64-unknown-elf/10.4.0/../../../../riscv64-unknown-elf/lib/rv64imafdc/lp64d/libc.a(lib_a-wcrtomb.o)
 .data          0x0000000000000000        0x0 /opt/Xuantie-900-gcc-elf-newlib-x86_64-V2.8.1/bin/../lib/gcc/riscv64-unknown-elf/10.4.0/../../../../riscv64-unknown-elf/lib/rv64imafdc/lp64d/libc.a(lib_a-wctomb_r.o)
 .bss           0x0000000000000000        0x0 /opt/Xuantie-900-gcc-elf-newlib-x86_64-V2.8.1/bin/../lib/gcc/riscv64-unknown-elf/10.4.0/../../../../riscv64-unknown-elf/lib/rv64imafdc/lp64d/libc.a(lib_a-wctomb_r.o)
 .data          0x0000000000000000        0x0 /opt/Xuantie-900-gcc-elf-newlib-x86_64-V2.8.1/bin/../lib/gcc/riscv64-unknown-elf/10.4.0/../../../../riscv64-unknown-elf/lib/rv64imafdc/lp64d/libc.a(lib_a-abort.o)
 .bss           0x0000000000000000        0x0 /opt/Xuantie-900-gcc-elf-newlib-x86_64-V2.8.1/bin/../lib/gcc/riscv64-unknown-elf/10.4.0/../../../../riscv64-unknown-elf/lib/rv64imafdc/lp64d/libc.a(lib_a-abort.o)
 .data          0x0000000000000000        0x0 /opt/Xuantie-900-gcc-elf-newlib-x86_64-V2.8.1/bin/../lib/gcc/riscv64-unknown-elf/10.4.0/../../../../riscv64-unknown-elf/lib/rv64imafdc/lp64d/libc.a(lib_a-signal.o)
 .bss           0x0000000000000000        0x0 /opt/Xuantie-900-gcc-elf-newlib-x86_64-V2.8.1/bin/../lib/gcc/riscv64-unknown-elf/10.4.0/../../../../riscv64-unknown-elf/lib/rv64imafdc/lp64d/libc.a(lib_a-signal.o)
 .data          0x0000000000000000        0x0 /opt/Xuantie-900-gcc-elf-newlib-x86_64-V2.8.1/bin/../lib/gcc/riscv64-unknown-elf/10.4.0/rv64imafdc/lp64d/libgcc.a(eqtf2.o)
 .bss           0x0000000000000000        0x0 /opt/Xuantie-900-gcc-elf-newlib-x86_64-V2.8.1/bin/../lib/gcc/riscv64-unknown-elf/10.4.0/rv64imafdc/lp64d/libgcc.a(eqtf2.o)
 .data          0x0000000000000000        0x0 /opt/Xuantie-900-gcc-elf-newlib-x86_64-V2.8.1/bin/../lib/gcc/riscv64-unknown-elf/10.4.0/rv64imafdc/lp64d/libgcc.a(getf2.o)
 .bss           0x0000000000000000        0x0 /opt/Xuantie-900-gcc-elf-newlib-x86_64-V2.8.1/bin/../lib/gcc/riscv64-unknown-elf/10.4.0/rv64imafdc/lp64d/libgcc.a(getf2.o)
 .data          0x0000000000000000        0x0 /opt/Xuantie-900-gcc-elf-newlib-x86_64-V2.8.1/bin/../lib/gcc/riscv64-unknown-elf/10.4.0/rv64imafdc/lp64d/libgcc.a(letf2.o)
 .bss           0x0000000000000000        0x0 /opt/Xuantie-900-gcc-elf-newlib-x86_64-V2.8.1/bin/../lib/gcc/riscv64-unknown-elf/10.4.0/rv64imafdc/lp64d/libgcc.a(letf2.o)
 .data          0x0000000000000000        0x0 /opt/Xuantie-900-gcc-elf-newlib-x86_64-V2.8.1/bin/../lib/gcc/riscv64-unknown-elf/10.4.0/rv64imafdc/lp64d/libgcc.a(multf3.o)
 .bss           0x0000000000000000        0x0 /opt/Xuantie-900-gcc-elf-newlib-x86_64-V2.8.1/bin/../lib/gcc/riscv64-unknown-elf/10.4.0/rv64imafdc/lp64d/libgcc.a(multf3.o)
 .data          0x0000000000000000        0x0 /opt/Xuantie-900-gcc-elf-newlib-x86_64-V2.8.1/bin/../lib/gcc/riscv64-unknown-elf/10.4.0/rv64imafdc/lp64d/libgcc.a(subtf3.o)
 .bss           0x0000000000000000        0x0 /opt/Xuantie-900-gcc-elf-newlib-x86_64-V2.8.1/bin/../lib/gcc/riscv64-unknown-elf/10.4.0/rv64imafdc/lp64d/libgcc.a(subtf3.o)
 .data          0x0000000000000000        0x0 /opt/Xuantie-900-gcc-elf-newlib-x86_64-V2.8.1/bin/../lib/gcc/riscv64-unknown-elf/10.4.0/rv64imafdc/lp64d/libgcc.a(fixtfsi.o)
 .bss           0x0000000000000000        0x0 /opt/Xuantie-900-gcc-elf-newlib-x86_64-V2.8.1/bin/../lib/gcc/riscv64-unknown-elf/10.4.0/rv64imafdc/lp64d/libgcc.a(fixtfsi.o)
 .data          0x0000000000000000        0x0 /opt/Xuantie-900-gcc-elf-newlib-x86_64-V2.8.1/bin/../lib/gcc/riscv64-unknown-elf/10.4.0/rv64imafdc/lp64d/libgcc.a(floatsitf.o)
 .bss           0x0000000000000000        0x0 /opt/Xuantie-900-gcc-elf-newlib-x86_64-V2.8.1/bin/../lib/gcc/riscv64-unknown-elf/10.4.0/rv64imafdc/lp64d/libgcc.a(floatsitf.o)
 .data          0x0000000000000000        0x0 /opt/Xuantie-900-gcc-elf-newlib-x86_64-V2.8.1/bin/../lib/gcc/riscv64-unknown-elf/10.4.0/rv64imafdc/lp64d/libgcc.a(extenddftf2.o)
 .bss           0x0000000000000000        0x0 /opt/Xuantie-900-gcc-elf-newlib-x86_64-V2.8.1/bin/../lib/gcc/riscv64-unknown-elf/10.4.0/rv64imafdc/lp64d/libgcc.a(extenddftf2.o)
 .data          0x0000000000000000        0x0 /opt/Xuantie-900-gcc-elf-newlib-x86_64-V2.8.1/bin/../lib/gcc/riscv64-unknown-elf/10.4.0/rv64imafdc/lp64d/libgcc.a(trunctfdf2.o)
 .bss           0x0000000000000000        0x0 /opt/Xuantie-900-gcc-elf-newlib-x86_64-V2.8.1/bin/../lib/gcc/riscv64-unknown-elf/10.4.0/rv64imafdc/lp64d/libgcc.a(trunctfdf2.o)
 .data          0x0000000000000000        0x0 /opt/Xuantie-900-gcc-elf-newlib-x86_64-V2.8.1/bin/../lib/gcc/riscv64-unknown-elf/10.4.0/rv64imafdc/lp64d/libgcc.a(_clzsi2.o)
 .bss           0x0000000000000000        0x0 /opt/Xuantie-900-gcc-elf-newlib-x86_64-V2.8.1/bin/../lib/gcc/riscv64-unknown-elf/10.4.0/rv64imafdc/lp64d/libgcc.a(_clzsi2.o)
 .text          0x0000000000000000        0x0 /opt/Xuantie-900-gcc-elf-newlib-x86_64-V2.8.1/bin/../lib/gcc/riscv64-unknown-elf/10.4.0/rv64imafdc/lp64d/libgcc.a(_clz.o)
 .data          0x0000000000000000        0x0 /opt/Xuantie-900-gcc-elf-newlib-x86_64-V2.8.1/bin/../lib/gcc/riscv64-unknown-elf/10.4.0/rv64imafdc/lp64d/libgcc.a(_clz.o)
 .bss           0x0000000000000000        0x0 /opt/Xuantie-900-gcc-elf-newlib-x86_64-V2.8.1/bin/../lib/gcc/riscv64-unknown-elf/10.4.0/rv64imafdc/lp64d/libgcc.a(_clz.o)

Memory Configuration

Name             Origin             Length             Attributes
DRAM             0x0000000050000000 0x0000000000100000
*default*        0x0000000000000000 0xffffffffffffffff

Linker script and memory map

LOAD /opt/Xuantie-900-gcc-elf-newlib-x86_64-V2.8.1/bin/../lib/gcc/riscv64-unknown-elf/10.4.0/../../../../riscv64-unknown-elf/lib/rv64imafdc/lp64d/libsupc++.a
LOAD /opt/Xuantie-900-gcc-elf-newlib-x86_64-V2.8.1/bin/../lib/gcc/riscv64-unknown-elf/10.4.0/rv64imafdc/lp64d/libgcc.a
LOAD build/kernel/components/libc/compilers/common/cctype.o
LOAD build/kernel/components/libc/compilers/common/cstdlib.o
LOAD build/kernel/components/libc/compilers/common/cstring.o
LOAD build/kernel/components/libc/compilers/common/ctime.o
LOAD build/kernel/components/libc/compilers/common/cunistd.o
LOAD build/kernel/components/libc/compilers/common/cwchar.o
LOAD build/kernel/components/libc/compilers/newlib/syscalls.o
LOAD build/kernel/libcpu/risc-v/common/context_gcc.o
LOAD build/kernel/libcpu/risc-v/common/cpuport.o
LOAD build/kernel/libcpu/risc-v/common/interrupt_gcc.o
LOAD build/kernel/libcpu/risc-v/common/trap_common.o
LOAD build/kernel/libcpu/risc-v/rv64/cpuport.o
LOAD build/kernel/libcpu/risc-v/rv64/trap.o
LOAD build/applications/main.o
LOAD build/board/board.o
LOAD build/board/board_uart.o
LOAD build/board/devices.o
LOAD build/board/dw_uart_ll.o
LOAD build/board/interrupt.o
LOAD build/board/irq.o
LOAD build/board/irq_port.o
LOAD build/board/startup.o
LOAD build/board/sys_clk.o
LOAD build/board/system.o
LOAD build/board/target_get.o
LOAD build/board/tick.o
LOAD build/board/trap_c.o
LOAD build/board/uart.o
LOAD build/board/vectors.o
LOAD build/kernel/components/drivers/core/device.o
LOAD build/kernel/components/drivers/cputime/cputime.o
LOAD build/kernel/components/drivers/cputime/cputime_riscv.o
LOAD build/kernel/components/drivers/cputime/cputimer.o
LOAD build/kernel/components/drivers/ipc/completion_comm.o
LOAD build/kernel/components/drivers/ipc/completion_up.o
LOAD build/kernel/components/drivers/ipc/condvar.o
LOAD build/kernel/components/drivers/ipc/dataqueue.o
LOAD build/kernel/components/drivers/ipc/pipe.o
LOAD build/kernel/components/drivers/ipc/ringblk_buf.o
LOAD build/kernel/components/drivers/ipc/ringbuffer.o
LOAD build/kernel/components/drivers/ipc/waitqueue.o
LOAD build/kernel/components/drivers/ipc/workqueue.o
LOAD build/kernel/components/drivers/pin/pin.o
LOAD build/kernel/components/drivers/serial/serial.o
LOAD build/kernel/components/finsh/cmd.o
LOAD build/kernel/components/finsh/msh.o
LOAD build/kernel/components/finsh/msh_parse.o
LOAD build/kernel/components/finsh/shell.o
LOAD build/kernel/src/clock.o
LOAD build/kernel/src/components.o
LOAD build/kernel/src/cpu_up.o
LOAD build/kernel/src/idle.o
LOAD build/kernel/src/ipc.o
LOAD build/kernel/src/irq.o
LOAD build/kernel/src/klibc/kstdio.o
LOAD build/kernel/src/klibc/kstring.o
LOAD build/kernel/src/kservice.o
LOAD build/kernel/src/mem.o
LOAD build/kernel/src/mempool.o
LOAD build/kernel/src/object.o
LOAD build/kernel/src/scheduler_comm.o
LOAD build/kernel/src/scheduler_up.o
LOAD build/kernel/src/thread.o
LOAD build/kernel/src/timer.o
LOAD /opt/Xuantie-900-gcc-elf-newlib-x86_64-V2.8.1/bin/../lib/gcc/riscv64-unknown-elf/10.4.0/../../../../riscv64-unknown-elf/lib/rv64imafdc/lp64d/libc.a
LOAD /opt/Xuantie-900-gcc-elf-newlib-x86_64-V2.8.1/bin/../lib/gcc/riscv64-unknown-elf/10.4.0/../../../../riscv64-unknown-elf/lib/rv64imafdc/lp64d/libm.a
LOAD /opt/Xuantie-900-gcc-elf-newlib-x86_64-V2.8.1/bin/../lib/gcc/riscv64-unknown-elf/10.4.0/rv64imafdc/lp64d/libgcc.a
START GROUP
LOAD /opt/Xuantie-900-gcc-elf-newlib-x86_64-V2.8.1/bin/../lib/gcc/riscv64-unknown-elf/10.4.0/../../../../riscv64-unknown-elf/lib/rv64imafdc/lp64d/libc.a
LOAD /opt/Xuantie-900-gcc-elf-newlib-x86_64-V2.8.1/bin/../lib/gcc/riscv64-unknown-elf/10.4.0/../../../../riscv64-unknown-elf/lib/rv64imafdc/lp64d/libgloss.a
END GROUP
LOAD /opt/Xuantie-900-gcc-elf-newlib-x86_64-V2.8.1/bin/../lib/gcc/riscv64-unknown-elf/10.4.0/rv64imafdc/lp64d/libgcc.a
                0x0000000000001000                _STACK_SIZE = 0x1000
                0x0000000000000200                __min_heap_size = 0x200
                0x00000000500ffff8                PROVIDE (__ram_end = 0x500ffff8)
                0x00000000500ffff8                PROVIDE (__heap_end = __ram_end)

.text           0x0000000050000000    0x14988
 *(.vectors)
 .vectors       0x0000000050000000       0x40 build/board/startup.o
                0x0000000050000000                __Vectors
 *(.boot)
 *(.text)
 .text          0x0000000050000040      0x154 build/kernel/libcpu/risc-v/common/context_gcc.o
                0x0000000050000040                rt_hw_interrupt_disable
                0x0000000050000046                rt_hw_interrupt_enable
                0x000000005000004c                rt_hw_context_switch_to
                0x0000000050000064                rt_hw_context_switch
                0x00000000500000fc                rt_hw_context_switch_exit
 .text          0x0000000050000194       0x78 build/board/startup.o
                0x00000000500001c8                Reset_Handler
 *fill*         0x000000005000020c        0x4 
 .text          0x0000000050000210      0x41e build/board/vectors.o
                0x0000000050000210                Scoret_Handler
                0x00000000500002f8                Mcoret_Handler
                0x00000000500003e0                Sirq_Handler
                0x00000000500004c8                Mirq_Handler
                0x0000000050000540                _interrupt_return_address
                0x00000000500005b0                trap
                0x0000000050000628                Mtspend_Handler
                0x0000000050000628                Default_Handler
                0x0000000050000628                Stspend_Handler
 .text          0x000000005000062e       0x28 /opt/Xuantie-900-gcc-elf-newlib-x86_64-V2.8.1/bin/../lib/gcc/riscv64-unknown-elf/10.4.0/../../../../riscv64-unknown-elf/lib/rv64imafdc/lp64d/libc.a(lib_a-atoi.o)
                0x000000005000062e                atoi
                0x0000000050000642                _atoi_r
 .text          0x0000000050000656       0x52 /opt/Xuantie-900-gcc-elf-newlib-x86_64-V2.8.1/bin/../lib/gcc/riscv64-unknown-elf/10.4.0/../../../../riscv64-unknown-elf/lib/rv64imafdc/lp64d/libc.a(lib_a-memcmp.o)
                0x0000000050000656                memcmp
 *fill*         0x00000000500006a8        0x0 
 .text          0x00000000500006a8       0xaa /opt/Xuantie-900-gcc-elf-newlib-x86_64-V2.8.1/bin/../lib/gcc/riscv64-unknown-elf/10.4.0/../../../../riscv64-unknown-elf/lib/rv64imafdc/lp64d/libc.a(lib_a-memset.o)
                0x00000000500006a8                memset
 .text          0x0000000050000752       0x4e /opt/Xuantie-900-gcc-elf-newlib-x86_64-V2.8.1/bin/../lib/gcc/riscv64-unknown-elf/10.4.0/../../../../riscv64-unknown-elf/lib/rv64imafdc/lp64d/libc.a(lib_a-printf.o)
                0x0000000050000752                _printf_r
                0x0000000050000774                printf
 .text          0x00000000500007a0       0xf6 /opt/Xuantie-900-gcc-elf-newlib-x86_64-V2.8.1/bin/../lib/gcc/riscv64-unknown-elf/10.4.0/../../../../riscv64-unknown-elf/lib/rv64imafdc/lp64d/libc.a(lib_a-strchr.o)
                0x00000000500007a0                strchr
 *fill*         0x0000000050000896        0x2 
 .text          0x0000000050000898       0xea /opt/Xuantie-900-gcc-elf-newlib-x86_64-V2.8.1/bin/../lib/gcc/riscv64-unknown-elf/10.4.0/../../../../riscv64-unknown-elf/lib/rv64imafdc/lp64d/libc.a(lib_a-strcmp.o)
                0x0000000050000898                strcmp
 *fill*         0x0000000050000982        0x2 
 .text          0x0000000050000984       0xa2 /opt/Xuantie-900-gcc-elf-newlib-x86_64-V2.8.1/bin/../lib/gcc/riscv64-unknown-elf/10.4.0/../../../../riscv64-unknown-elf/lib/rv64imafdc/lp64d/libc.a(lib_a-strcpy.o)
                0x0000000050000984                strcpy
 *fill*         0x0000000050000a26        0x2 
 .text          0x0000000050000a28       0x96 /opt/Xuantie-900-gcc-elf-newlib-x86_64-V2.8.1/bin/../lib/gcc/riscv64-unknown-elf/10.4.0/../../../../riscv64-unknown-elf/lib/rv64imafdc/lp64d/libc.a(lib_a-strlen.o)
                0x0000000050000a28                strlen
 .text          0x0000000050000abe       0x94 /opt/Xuantie-900-gcc-elf-newlib-x86_64-V2.8.1/bin/../lib/gcc/riscv64-unknown-elf/10.4.0/../../../../riscv64-unknown-elf/lib/rv64imafdc/lp64d/libc.a(lib_a-strncmp.o)
                0x0000000050000abe                strncmp
 .text          0x0000000050000b52       0x7a /opt/Xuantie-900-gcc-elf-newlib-x86_64-V2.8.1/bin/../lib/gcc/riscv64-unknown-elf/10.4.0/../../../../riscv64-unknown-elf/lib/rv64imafdc/lp64d/libc.a(lib_a-strncpy.o)
                0x0000000050000b52                strncpy
 .text          0x0000000050000bcc      0x1d6 /opt/Xuantie-900-gcc-elf-newlib-x86_64-V2.8.1/bin/../lib/gcc/riscv64-unknown-elf/10.4.0/../../../../riscv64-unknown-elf/lib/rv64imafdc/lp64d/libc.a(lib_a-strtol.o)
                0x0000000050000d1e                _strtol_r
                0x0000000050000d42                strtol_l
                0x0000000050000d72                strtol
 .text          0x0000000050000da2      0x188 /opt/Xuantie-900-gcc-elf-newlib-x86_64-V2.8.1/bin/../lib/gcc/riscv64-unknown-elf/10.4.0/../../../../riscv64-unknown-elf/lib/rv64imafdc/lp64d/libc.a(lib_a-strtoul.o)
                0x0000000050000f0c                _strtoul_r
                0x0000000050000f0e                strtoul_l
                0x0000000050000f1c                strtoul
 .text          0x0000000050000f2a     0x1c76 /opt/Xuantie-900-gcc-elf-newlib-x86_64-V2.8.1/bin/../lib/gcc/riscv64-unknown-elf/10.4.0/../../../../riscv64-unknown-elf/lib/rv64imafdc/lp64d/libc.a(lib_a-vfprintf.o)
                0x0000000050000f2a                _vfprintf_r
                0x0000000050002ae0                vfprintf
 .text          0x0000000050002ba0       0xf8 /opt/Xuantie-900-gcc-elf-newlib-x86_64-V2.8.1/bin/../lib/gcc/riscv64-unknown-elf/10.4.0/../../../../riscv64-unknown-elf/lib/rv64imafdc/lp64d/libc.a(lib_a-wsetup.o)
                0x0000000050002ba0                __swsetup_r
 .text          0x0000000050002c98      0x2a0 /opt/Xuantie-900-gcc-elf-newlib-x86_64-V2.8.1/bin/../lib/gcc/riscv64-unknown-elf/10.4.0/../../../../riscv64-unknown-elf/lib/rv64imafdc/lp64d/libc.a(lib_a-fflush.o)
                0x0000000050002c98                __sflush_r
                0x0000000050002e2a                _fflush_r
                0x0000000050002eb2                fflush
 .text          0x0000000050002f38      0x35a /opt/Xuantie-900-gcc-elf-newlib-x86_64-V2.8.1/bin/../lib/gcc/riscv64-unknown-elf/10.4.0/../../../../riscv64-unknown-elf/lib/rv64imafdc/lp64d/libc.a(lib_a-findfp.o)
                0x0000000050002f38                _cleanup_r
                0x0000000050002f92                __sfmoreglue
                0x0000000050002fda                _cleanup
                0x0000000050002fec                __sinit
                0x0000000050003136                __sfp
                0x0000000050003234                __sfp_lock_acquire
                0x000000005000323c                __sfp_lock_release
                0x0000000050003244                __sinit_lock_acquire
                0x000000005000324c                __sinit_lock_release
                0x0000000050003254                __fp_lock_all
                0x0000000050003272                __fp_unlock_all
 .text          0x0000000050003292      0x10c /opt/Xuantie-900-gcc-elf-newlib-x86_64-V2.8.1/bin/../lib/gcc/riscv64-unknown-elf/10.4.0/../../../../riscv64-unknown-elf/lib/rv64imafdc/lp64d/libc.a(lib_a-fwalk.o)
                0x0000000050003292                _fwalk
                0x0000000050003314                _fwalk_reent
 .text          0x000000005000339e     0x2130 /opt/Xuantie-900-gcc-elf-newlib-x86_64-V2.8.1/bin/../lib/gcc/riscv64-unknown-elf/10.4.0/../../../../riscv64-unknown-elf/lib/rv64imafdc/lp64d/libc.a(lib_a-ldtoa.o)
                0x0000000050004616                _ldtoa_r
                0x000000005000548c                _ldcheck
 .text          0x00000000500054ce       0x12 /opt/Xuantie-900-gcc-elf-newlib-x86_64-V2.8.1/bin/../lib/gcc/riscv64-unknown-elf/10.4.0/../../../../riscv64-unknown-elf/lib/rv64imafdc/lp64d/libc.a(lib_a-localeconv.o)
                0x00000000500054ce                __localeconv_l
                0x00000000500054d4                _localeconv_r
                0x00000000500054da                localeconv
 .text          0x00000000500054e0       0x18 /opt/Xuantie-900-gcc-elf-newlib-x86_64-V2.8.1/bin/../lib/gcc/riscv64-unknown-elf/10.4.0/../../../../riscv64-unknown-elf/lib/rv64imafdc/lp64d/libc.a(lib_a-lock.o)
                0x00000000500054e0                __retarget_lock_init
                0x00000000500054e2                __retarget_lock_init_recursive
                0x00000000500054e4                __retarget_lock_close
                0x00000000500054e6                __retarget_lock_close_recursive
                0x00000000500054e8                __retarget_lock_acquire
                0x00000000500054ea                __retarget_lock_acquire_recursive
                0x00000000500054ec                __retarget_lock_try_acquire
                0x00000000500054f0                __retarget_lock_try_acquire_recursive
                0x00000000500054f4                __retarget_lock_release
                0x00000000500054f6                __retarget_lock_release_recursive
 .text          0x00000000500054f8      0x198 /opt/Xuantie-900-gcc-elf-newlib-x86_64-V2.8.1/bin/../lib/gcc/riscv64-unknown-elf/10.4.0/../../../../riscv64-unknown-elf/lib/rv64imafdc/lp64d/libc.a(lib_a-makebuf.o)
                0x00000000500054f8                __smakebuf_r
                0x000000005000560e                __swhatbuf_r
 .text          0x0000000050005690       0x96 /opt/Xuantie-900-gcc-elf-newlib-x86_64-V2.8.1/bin/../lib/gcc/riscv64-unknown-elf/10.4.0/../../../../riscv64-unknown-elf/lib/rv64imafdc/lp64d/libc.a(lib_a-memchr.o)
                0x0000000050005690                memchr
 .text          0x0000000050005726      0xcb6 /opt/Xuantie-900-gcc-elf-newlib-x86_64-V2.8.1/bin/../lib/gcc/riscv64-unknown-elf/10.4.0/../../../../riscv64-unknown-elf/lib/rv64imafdc/lp64d/libc.a(lib_a-mprec.o)
                0x0000000050005726                _Balloc
                0x0000000050005788                _Bfree
                0x000000005000579a                __multadd
                0x0000000050005884                __s2b
                0x000000005000596c                __hi0bits
                0x00000000500059ba                __lo0bits
                0x0000000050005a52                __i2b
                0x0000000050005abe                __multiply
                0x0000000050005c68                __pow5mult
                0x0000000050005d46                __lshift
                0x0000000050005e70                __mcmp
                0x0000000050005ea8                __mdiff
                0x0000000050006050                __ulp
                0x00000000500060ae                __b2d
                0x00000000500061a2                __d2b
                0x0000000050006298                __ratio
                0x000000005000631c                _mprec_log10
                0x000000005000634c                __copybits
                0x0000000050006394                __any_on
 .text          0x00000000500063dc       0x80 /opt/Xuantie-900-gcc-elf-newlib-x86_64-V2.8.1/bin/../lib/gcc/riscv64-unknown-elf/10.4.0/../../../../riscv64-unknown-elf/lib/rv64imafdc/lp64d/libc.a(lib_a-s_frexp.o)
                0x00000000500063dc                frexp
 .text          0x000000005000645c       0x8c /opt/Xuantie-900-gcc-elf-newlib-x86_64-V2.8.1/bin/../lib/gcc/riscv64-unknown-elf/10.4.0/../../../../riscv64-unknown-elf/lib/rv64imafdc/lp64d/libc.a(lib_a-sprintf.o)
                0x000000005000645c                _sprintf_r
                0x000000005000649e                sprintf
 .text          0x00000000500064e8       0xda /opt/Xuantie-900-gcc-elf-newlib-x86_64-V2.8.1/bin/../lib/gcc/riscv64-unknown-elf/10.4.0/../../../../riscv64-unknown-elf/lib/rv64imafdc/lp64d/libc.a(lib_a-stdio.o)
                0x00000000500064e8                __sread
                0x0000000050006520                __seofread
                0x0000000050006524                __swrite
                0x0000000050006578                __sseek
                0x00000000500065ba                __sclose
 .text          0x00000000500065c2     0x1afa /opt/Xuantie-900-gcc-elf-newlib-x86_64-V2.8.1/bin/../lib/gcc/riscv64-unknown-elf/10.4.0/../../../../riscv64-unknown-elf/lib/rv64imafdc/lp64d/libc.a(lib_a-svfprintf.o)
                0x00000000500065c2                _svfprintf_r
 .text          0x00000000500080bc      0xe1c /opt/Xuantie-900-gcc-elf-newlib-x86_64-V2.8.1/bin/../lib/gcc/riscv64-unknown-elf/10.4.0/../../../../riscv64-unknown-elf/lib/rv64imafdc/lp64d/libc.a(lib_a-vfiprintf.o)
                0x0000000050008160                __sprint_r
                0x000000005000816e                _vfiprintf_r
                0x0000000050008e18                vfiprintf
 .text          0x0000000050008ed8       0x4c /opt/Xuantie-900-gcc-elf-newlib-x86_64-V2.8.1/bin/../lib/gcc/riscv64-unknown-elf/10.4.0/../../../../riscv64-unknown-elf/lib/rv64imafdc/lp64d/libc.a(lib_a-assert.o)
                0x0000000050008ed8                __assert_func
                0x0000000050008f18                __assert
 .text          0x0000000050008f24      0x10c /opt/Xuantie-900-gcc-elf-newlib-x86_64-V2.8.1/bin/../lib/gcc/riscv64-unknown-elf/10.4.0/../../../../riscv64-unknown-elf/lib/rv64imafdc/lp64d/libc.a(lib_a-fclose.o)
                0x0000000050008f24                _fclose_r
                0x0000000050009028                fclose
 .text          0x0000000050009030       0x4c /opt/Xuantie-900-gcc-elf-newlib-x86_64-V2.8.1/bin/../lib/gcc/riscv64-unknown-elf/10.4.0/../../../../riscv64-unknown-elf/lib/rv64imafdc/lp64d/libc.a(lib_a-fiprintf.o)
                0x0000000050009030                _fiprintf_r
                0x0000000050009050                fiprintf
 .text          0x000000005000907c      0x1fa /opt/Xuantie-900-gcc-elf-newlib-x86_64-V2.8.1/bin/../lib/gcc/riscv64-unknown-elf/10.4.0/../../../../riscv64-unknown-elf/lib/rv64imafdc/lp64d/libc.a(lib_a-fputwc.o)
                0x000000005000907c                __fputwc
                0x0000000050009142                _fputwc_r
                0x00000000500091d2                fputwc
 .text          0x0000000050009276      0x324 /opt/Xuantie-900-gcc-elf-newlib-x86_64-V2.8.1/bin/../lib/gcc/riscv64-unknown-elf/10.4.0/../../../../riscv64-unknown-elf/lib/rv64imafdc/lp64d/libc.a(lib_a-fvwrite.o)
                0x0000000050009276                __sfvwrite_r
 .text          0x000000005000959a       0xb6 /opt/Xuantie-900-gcc-elf-newlib-x86_64-V2.8.1/bin/../lib/gcc/riscv64-unknown-elf/10.4.0/../../../../riscv64-unknown-elf/lib/rv64imafdc/lp64d/libc.a(lib_a-locale.o)
                0x000000005000959a                _setlocale_r
                0x00000000500095f2                __locale_mb_cur_max
                0x00000000500095f8                setlocale
 .text          0x0000000050009650       0x46 /opt/Xuantie-900-gcc-elf-newlib-x86_64-V2.8.1/bin/../lib/gcc/riscv64-unknown-elf/10.4.0/../../../../riscv64-unknown-elf/lib/rv64imafdc/lp64d/libc.a(lib_a-mbtowc_r.o)
                0x0000000050009650                _mbtowc_r
                0x0000000050009656                __ascii_mbtowc
 *fill*         0x0000000050009696        0x2 
 .text          0x0000000050009698       0xbe /opt/Xuantie-900-gcc-elf-newlib-x86_64-V2.8.1/bin/../lib/gcc/riscv64-unknown-elf/10.4.0/../../../../riscv64-unknown-elf/lib/rv64imafdc/lp64d/libc.a(lib_a-memcpy-asm.o)
                0x0000000050009698                memcpy
 .text          0x0000000050009756       0xd6 /opt/Xuantie-900-gcc-elf-newlib-x86_64-V2.8.1/bin/../lib/gcc/riscv64-unknown-elf/10.4.0/../../../../riscv64-unknown-elf/lib/rv64imafdc/lp64d/libc.a(lib_a-memmove-stub.o)
                0x0000000050009756                memmove
 .text          0x000000005000982c      0xb8a /opt/Xuantie-900-gcc-elf-newlib-x86_64-V2.8.1/bin/../lib/gcc/riscv64-unknown-elf/10.4.0/../../../../riscv64-unknown-elf/lib/rv64imafdc/lp64d/libc.a(lib_a-svfiprintf.o)
                0x000000005000982c                __ssprint_r
                0x000000005000998a                _svfiprintf_r
 .text          0x000000005000a3b6      0x104 /opt/Xuantie-900-gcc-elf-newlib-x86_64-V2.8.1/bin/../lib/gcc/riscv64-unknown-elf/10.4.0/../../../../riscv64-unknown-elf/lib/rv64imafdc/lp64d/libc.a(lib_a-wbuf.o)
                0x000000005000a3b6                __swbuf_r
                0x000000005000a4ae                __swbuf
 .text          0x000000005000a4ba       0x96 /opt/Xuantie-900-gcc-elf-newlib-x86_64-V2.8.1/bin/../lib/gcc/riscv64-unknown-elf/10.4.0/../../../../riscv64-unknown-elf/lib/rv64imafdc/lp64d/libc.a(lib_a-wcrtomb.o)
                0x000000005000a4ba                _wcrtomb_r
                0x000000005000a4fe                wcrtomb
 .text          0x000000005000a550       0x2a /opt/Xuantie-900-gcc-elf-newlib-x86_64-V2.8.1/bin/../lib/gcc/riscv64-unknown-elf/10.4.0/../../../../riscv64-unknown-elf/lib/rv64imafdc/lp64d/libc.a(lib_a-wctomb_r.o)
                0x000000005000a550                _wctomb_r
                0x000000005000a556                __ascii_wctomb
 .text          0x000000005000a57a       0x10 /opt/Xuantie-900-gcc-elf-newlib-x86_64-V2.8.1/bin/../lib/gcc/riscv64-unknown-elf/10.4.0/../../../../riscv64-unknown-elf/lib/rv64imafdc/lp64d/libc.a(lib_a-abort.o)
                0x000000005000a57a                abort
 .text          0x000000005000a58a      0x356 /opt/Xuantie-900-gcc-elf-newlib-x86_64-V2.8.1/bin/../lib/gcc/riscv64-unknown-elf/10.4.0/../../../../riscv64-unknown-elf/lib/rv64imafdc/lp64d/libc.a(lib_a-signal.o)
                0x000000005000a58a                _init_signal_r
                0x000000005000a5c6                _signal_r
                0x000000005000a62a                _raise_r
                0x000000005000a6a8                __sigtramp_r
                0x000000005000a730                raise
                0x000000005000a7ae                signal
                0x000000005000a81a                _init_signal
                0x000000005000a858                __sigtramp
 .text          0x000000005000a8e0       0x94 /opt/Xuantie-900-gcc-elf-newlib-x86_64-V2.8.1/bin/../lib/gcc/riscv64-unknown-elf/10.4.0/rv64imafdc/lp64d/libgcc.a(eqtf2.o)
                0x000000005000a8e0                __eqtf2
                0x000000005000a8e0                __netf2
 .text          0x000000005000a974       0xa6 /opt/Xuantie-900-gcc-elf-newlib-x86_64-V2.8.1/bin/../lib/gcc/riscv64-unknown-elf/10.4.0/rv64imafdc/lp64d/libgcc.a(getf2.o)
                0x000000005000a974                __getf2
                0x000000005000a974                __gttf2
 .text          0x000000005000aa1a       0xa6 /opt/Xuantie-900-gcc-elf-newlib-x86_64-V2.8.1/bin/../lib/gcc/riscv64-unknown-elf/10.4.0/rv64imafdc/lp64d/libgcc.a(letf2.o)
                0x000000005000aa1a                __letf2
                0x000000005000aa1a                __lttf2
 .text          0x000000005000aac0      0x5f8 /opt/Xuantie-900-gcc-elf-newlib-x86_64-V2.8.1/bin/../lib/gcc/riscv64-unknown-elf/10.4.0/rv64imafdc/lp64d/libgcc.a(multf3.o)
                0x000000005000aac0                __multf3
 .text          0x000000005000b0b8      0x82a /opt/Xuantie-900-gcc-elf-newlib-x86_64-V2.8.1/bin/../lib/gcc/riscv64-unknown-elf/10.4.0/rv64imafdc/lp64d/libgcc.a(subtf3.o)
                0x000000005000b0b8                __subtf3
 .text          0x000000005000b8e2       0x90 /opt/Xuantie-900-gcc-elf-newlib-x86_64-V2.8.1/bin/../lib/gcc/riscv64-unknown-elf/10.4.0/rv64imafdc/lp64d/libgcc.a(fixtfsi.o)
                0x000000005000b8e2                __fixtfsi
 .text          0x000000005000b972       0x58 /opt/Xuantie-900-gcc-elf-newlib-x86_64-V2.8.1/bin/../lib/gcc/riscv64-unknown-elf/10.4.0/rv64imafdc/lp64d/libgcc.a(floatsitf.o)
                0x000000005000b972                __floatsitf
 .text          0x000000005000b9ca       0xc2 /opt/Xuantie-900-gcc-elf-newlib-x86_64-V2.8.1/bin/../lib/gcc/riscv64-unknown-elf/10.4.0/rv64imafdc/lp64d/libgcc.a(extenddftf2.o)
                0x000000005000b9ca                __extenddftf2
 .text          0x000000005000ba8c      0x22c /opt/Xuantie-900-gcc-elf-newlib-x86_64-V2.8.1/bin/../lib/gcc/riscv64-unknown-elf/10.4.0/rv64imafdc/lp64d/libgcc.a(trunctfdf2.o)
                0x000000005000ba8c                __trunctfdf2
 .text          0x000000005000bcb8       0x30 /opt/Xuantie-900-gcc-elf-newlib-x86_64-V2.8.1/bin/../lib/gcc/riscv64-unknown-elf/10.4.0/rv64imafdc/lp64d/libgcc.a(_clzsi2.o)
                0x000000005000bcb8                __clzdi2
 *(.text.*)
 .text.__rt_libc_exit
                0x000000005000bce8       0x56 build/kernel/components/libc/compilers/common/cstdlib.o
                0x000000005000bce8                __rt_libc_exit
 .text._malloc_r
                0x000000005000bd3e       0x24 build/kernel/components/libc/compilers/newlib/syscalls.o
                0x000000005000bd3e                _malloc_r
 .text._realloc_r
                0x000000005000bd62       0x28 build/kernel/components/libc/compilers/newlib/syscalls.o
                0x000000005000bd62                _realloc_r
 .text._calloc_r
                0x000000005000bd8a       0x28 build/kernel/components/libc/compilers/newlib/syscalls.o
                0x000000005000bd8a                _calloc_r
 .text._free_r  0x000000005000bdb2        0x6 build/kernel/components/libc/compilers/newlib/syscalls.o
                0x000000005000bdb2                _free_r
 .text.__errno  0x000000005000bdb8        0x4 build/kernel/components/libc/compilers/newlib/syscalls.o
                0x000000005000bdb8                __errno
 .text._getpid_r
                0x000000005000bdbc        0x4 build/kernel/components/libc/compilers/newlib/syscalls.o
                0x000000005000bdbc                _getpid_r
 .text._close_r
                0x000000005000bdc0       0x4c build/kernel/components/libc/compilers/newlib/syscalls.o
                0x000000005000bdc0                _close_r
 .text._fstat_r
                0x000000005000be0c        0xa build/kernel/components/libc/compilers/newlib/syscalls.o
                0x000000005000be0c                _fstat_r
 .text._isatty_r
                0x000000005000be16        0x6 build/kernel/components/libc/compilers/newlib/syscalls.o
                0x000000005000be16                _isatty_r
 .text._kill_r  0x000000005000be1c        0xa build/kernel/components/libc/compilers/newlib/syscalls.o
                0x000000005000be1c                _kill_r
 .text._lseek_r
                0x000000005000be26       0x4c build/kernel/components/libc/compilers/newlib/syscalls.o
                0x000000005000be26                _lseek_r
 .text._read_r  0x000000005000be72       0x4c build/kernel/components/libc/compilers/newlib/syscalls.o
                0x000000005000be72                _read_r
 .text._write_r
                0x000000005000bebe       0x72 build/kernel/components/libc/compilers/newlib/syscalls.o
                0x000000005000bebe                _write_r
 .text._exit    0x000000005000bf30        0xa build/kernel/components/libc/compilers/newlib/syscalls.o
                0x000000005000bf30                _exit
 .text.rt_hw_stack_init
                0x000000005000bf3a       0x38 build/kernel/libcpu/risc-v/common/cpuport.o
                0x000000005000bf3a                rt_hw_stack_init
 .text.rt_trigger_software_interrupt
                0x000000005000bf72        0x2 build/kernel/libcpu/risc-v/common/cpuport.o
                0x000000005000bf72                rt_trigger_software_interrupt
 .text.rt_hw_context_switch_interrupt
                0x000000005000bf74       0x18 build/kernel/libcpu/risc-v/common/cpuport.o
                0x000000005000bf74                rt_hw_context_switch_interrupt
 .text.startup.main
                0x000000005000bf8c       0x18 build/applications/main.o
                0x000000005000bf8c                main
 .text.section_bss_clear
                0x000000005000bfa4       0x14 build/board/board.o
                0x000000005000bfa4                section_bss_clear
 .text.rt_hw_board_init
                0x000000005000bfb8       0x58 build/board/board.o
                0x000000005000bfb8                rt_hw_board_init
 .text.uart_isr
                0x000000005000c010       0x20 build/board/board_uart.o
                0x000000005000c010                uart_isr
 .text.uart_getc
                0x000000005000c030       0x14 build/board/board_uart.o
 .text.uart_putc
                0x000000005000c044       0x14 build/board/board_uart.o
 .text.rt_hw_uart_init
                0x000000005000c058       0x7a build/board/board_uart.o
                0x000000005000c058                rt_hw_uart_init
 .text.dw_uart_wait_timeout
                0x000000005000c0d2       0x4e build/board/dw_uart_ll.o
                0x000000005000c0d2                dw_uart_wait_timeout
 .text.dw_uart_config_baudrate
                0x000000005000c120       0x5a build/board/dw_uart_ll.o
                0x000000005000c120                dw_uart_config_baudrate
 .text.dw_uart_config_stop_bits
                0x000000005000c17a       0x50 build/board/dw_uart_ll.o
                0x000000005000c17a                dw_uart_config_stop_bits
 .text.dw_uart_config_parity_none
                0x000000005000c1ca       0x1c build/board/dw_uart_ll.o
                0x000000005000c1ca                dw_uart_config_parity_none
 .text.dw_uart_config_parity_odd
                0x000000005000c1e6       0x24 build/board/dw_uart_ll.o
                0x000000005000c1e6                dw_uart_config_parity_odd
 .text.dw_uart_config_parity_even
                0x000000005000c20a       0x26 build/board/dw_uart_ll.o
                0x000000005000c20a                dw_uart_config_parity_even
 .text.dw_uart_config_data_bits
                0x000000005000c230       0x2c build/board/dw_uart_ll.o
                0x000000005000c230                dw_uart_config_data_bits
 .text.rt_hw_interrupt_handler
                0x000000005000c25c        0xe build/board/interrupt.o
 .text.rt_hw_interrupt_init
                0x000000005000c26a       0x44 build/board/interrupt.o
                0x000000005000c26a                rt_hw_interrupt_init
 .text.rt_hw_interrupt_umask
                0x000000005000c2ae        0x2 build/board/interrupt.o
                0x000000005000c2ae                rt_hw_interrupt_umask
 .text.rt_hw_interrupt_install
                0x000000005000c2b0       0x1e build/board/interrupt.o
                0x000000005000c2b0                rt_hw_interrupt_install
 .text.CORET_IRQHandler
                0x000000005000c2ce       0x2e build/board/irq.o
                0x000000005000c2ce                CORET_IRQHandler
 .text.do_irq   0x000000005000c2fc       0x66 build/board/irq.o
                0x000000005000c2fc                do_irq
 .text.soc_irq_get_irq_num
                0x000000005000c362       0x14 build/board/irq_port.o
                0x000000005000c362                soc_irq_get_irq_num
 .text.soc_irq_end
                0x000000005000c376       0x14 build/board/irq_port.o
                0x000000005000c376                soc_irq_end
 .text.soc_get_coretim_freq
                0x000000005000c38a        0x6 build/board/sys_clk.o
                0x000000005000c38a                soc_get_coretim_freq
 .text.soc_get_uart_freq
                0x000000005000c390        0x6 build/board/sys_clk.o
                0x000000005000c390                soc_get_uart_freq
 .text.soc_set_sys_freq
                0x000000005000c396        0x6 build/board/sys_clk.o
                0x000000005000c396                soc_set_sys_freq
 .text.SystemInit
                0x000000005000c39c      0x150 build/board/system.o
                0x000000005000c39c                SystemInit
 .text.target_get
                0x000000005000c4ec       0x50 build/board/target_get.o
                0x000000005000c4ec                target_get
 .text.rt_hw_tick_isr
                0x000000005000c53c       0x6a build/board/tick.o
                0x000000005000c53c                rt_hw_tick_isr
 .text.csi_tick_init
                0x000000005000c5a6       0x90 build/board/tick.o
                0x000000005000c5a6                csi_tick_init
 .text.mdelay   0x000000005000c636       0x50 build/board/tick.o
                0x000000005000c636                mdelay
 .text.rt_hw_tick_init
                0x000000005000c686       0x34 build/board/tick.o
                0x000000005000c686                rt_hw_tick_init
 .text.trap_c   0x000000005000c6ba       0xc2 build/board/trap_c.o
                0x000000005000c6ba                trap_c
 .text.exceptionHandler
                0x000000005000c77c        0x8 build/board/trap_c.o
                0x000000005000c77c                exceptionHandler
 .text.csi_uart_init
                0x000000005000c784       0x5a build/board/uart.o
                0x000000005000c784                csi_uart_init
 .text.csi_uart_baud
                0x000000005000c7de       0x3a build/board/uart.o
                0x000000005000c7de                csi_uart_baud
 .text.csi_uart_format
                0x000000005000c818       0xc6 build/board/uart.o
                0x000000005000c818                csi_uart_format
 .text.csi_uart_putc
                0x000000005000c8de       0x38 build/board/uart.o
                0x000000005000c8de                csi_uart_putc
 .text.dw_uart_irq_handler
                0x000000005000c916      0x134 build/board/uart.o
                0x000000005000c916                dw_uart_irq_handler
 .text.csi_uart_getc
                0x000000005000ca4a       0x16 build/board/uart.o
                0x000000005000ca4a                csi_uart_getc
 .text.rt_device_register
                0x000000005000ca60       0x4c build/kernel/components/drivers/core/device.o
                0x000000005000ca60                rt_device_register
 .text.rt_device_find
                0x000000005000caac        0x6 build/kernel/components/drivers/core/device.o
                0x000000005000caac                rt_device_find
 .text.rt_device_open
                0x000000005000cab2      0x14c build/kernel/components/drivers/core/device.o
                0x000000005000cab2                rt_device_open
 .text.rt_device_close
                0x000000005000cbfe       0x8a build/kernel/components/drivers/core/device.o
                0x000000005000cbfe                rt_device_close
 .text.rt_device_read
                0x000000005000cc88       0xa4 build/kernel/components/drivers/core/device.o
                0x000000005000cc88                rt_device_read
 .text.rt_device_write
                0x000000005000cd2c       0xa4 build/kernel/components/drivers/core/device.o
                0x000000005000cd2c                rt_device_write
 .text.rt_device_set_rx_indicate
                0x000000005000cdd0       0x5a build/kernel/components/drivers/core/device.o
                0x000000005000cdd0                rt_device_set_rx_indicate
 .text.clock_cpu_setops
                0x000000005000ce2a       0x60 build/kernel/components/drivers/cputime/cputime.o
                0x000000005000ce2a                clock_cpu_setops
 .text.riscv_cputime_getres
                0x000000005000ce8a        0x2 build/kernel/components/drivers/cputime/cputime_riscv.o
 .text.riscv_cputime_gettime
                0x000000005000ce8c        0x6 build/kernel/components/drivers/cputime/cputime_riscv.o
 .text.riscv_cputime_init
                0x000000005000ce92       0x18 build/kernel/components/drivers/cputime/cputime_riscv.o
                0x000000005000ce92                riscv_cputime_init
 .text.rt_completion_wait
                0x000000005000ceaa        0x4 build/kernel/components/drivers/ipc/completion_comm.o
                0x000000005000ceaa                rt_completion_wait
 .text.rt_completion_init
                0x000000005000ceae       0x3a build/kernel/components/drivers/ipc/completion_up.o
                0x000000005000ceae                rt_completion_init
 .text.rt_completion_wait_flags
                0x000000005000cee8      0x224 build/kernel/components/drivers/ipc/completion_up.o
                0x000000005000cee8                rt_completion_wait_flags
 .text.rt_data_queue_init
                0x000000005000d10c       0xa0 build/kernel/components/drivers/ipc/dataqueue.o
                0x000000005000d10c                rt_data_queue_init
 .text.rt_data_queue_push
                0x000000005000d1ac      0x260 build/kernel/components/drivers/ipc/dataqueue.o
                0x000000005000d1ac                rt_data_queue_push
 .text.rt_data_queue_reset
                0x000000005000d40c       0x92 build/kernel/components/drivers/ipc/dataqueue.o
                0x000000005000d40c                rt_data_queue_reset
 .text.rt_data_queue_deinit
                0x000000005000d49e       0x7a build/kernel/components/drivers/ipc/dataqueue.o
                0x000000005000d49e                rt_data_queue_deinit
 .text._pin_cmd_print_usage
                0x000000005000d518       0xc2 build/kernel/components/drivers/pin/pin.o
 .text._pin_cmd
                0x000000005000d5da      0x34e build/kernel/components/drivers/pin/pin.o
 .text._serial_fifo_calc_recved_len
                0x000000005000d928       0x78 build/kernel/components/drivers/serial/serial.o
 .text.rt_serial_control
                0x000000005000d9a0      0x118 build/kernel/components/drivers/serial/serial.o
 .text.rt_serial_init
                0x000000005000dab8       0x56 build/kernel/components/drivers/serial/serial.o
 .text.rt_serial_open
                0x000000005000db0e      0x2c8 build/kernel/components/drivers/serial/serial.o
 .text.rt_serial_write
                0x000000005000ddd6      0x18a build/kernel/components/drivers/serial/serial.o
 .text.rt_serial_read
                0x000000005000df60      0x2f6 build/kernel/components/drivers/serial/serial.o
 .text.rt_serial_close
                0x000000005000e256      0x1a2 build/kernel/components/drivers/serial/serial.o
 .text.rt_hw_serial_register
                0x000000005000e3f8       0x9e build/kernel/components/drivers/serial/serial.o
                0x000000005000e3f8                rt_hw_serial_register
 .text.clear    0x000000005000e496       0x18 build/kernel/components/finsh/cmd.o
 .text.version  0x000000005000e4ae       0x10 build/kernel/components/finsh/cmd.o
 .text.list_get_next.part.0
                0x000000005000e4be       0x86 build/kernel/components/finsh/cmd.o
 .text.list_thread
                0x000000005000e544      0x24c build/kernel/components/finsh/cmd.o
                0x000000005000e544                list_thread
 .text.list_sem
                0x000000005000e790      0x156 build/kernel/components/finsh/cmd.o
                0x000000005000e790                list_sem
 .text.list_event
                0x000000005000e8e6      0x154 build/kernel/components/finsh/cmd.o
                0x000000005000e8e6                list_event
 .text.list_mutex
                0x000000005000ea3a      0x172 build/kernel/components/finsh/cmd.o
                0x000000005000ea3a                list_mutex
 .text.list_mailbox
                0x000000005000ebac      0x164 build/kernel/components/finsh/cmd.o
                0x000000005000ebac                list_mailbox
 .text.list_msgqueue
                0x000000005000ed10      0x156 build/kernel/components/finsh/cmd.o
                0x000000005000ed10                list_msgqueue
 .text.list_mempool
                0x000000005000ee66      0x16c build/kernel/components/finsh/cmd.o
                0x000000005000ee66                list_mempool
 .text.list_timer
                0x000000005000efd2      0x16e build/kernel/components/finsh/cmd.o
                0x000000005000efd2                list_timer
 .text.list_device
                0x000000005000f140      0x144 build/kernel/components/finsh/cmd.o
                0x000000005000f140                list_device
 .text.cmd_list
                0x000000005000f284       0x88 build/kernel/components/finsh/cmd.o
 .text.msh_help
                0x000000005000f30c       0x5a build/kernel/components/finsh/msh.o
 .text.cmd_ps   0x000000005000f366       0x10 build/kernel/components/finsh/msh.o
 .text.cmd_free
                0x000000005000f376       0x58 build/kernel/components/finsh/msh.o
 .text.msh_get_cmd
                0x000000005000f3ce       0x62 build/kernel/components/finsh/msh.o
 .text.msh_get_cmd_opt
                0x000000005000f430       0x7a build/kernel/components/finsh/msh.o
 .text.msh_exec
                0x000000005000f4aa      0x1ca build/kernel/components/finsh/msh.o
                0x000000005000f4aa                msh_exec
 .text.msh_auto_complete
                0x000000005000f674      0x138 build/kernel/components/finsh/msh.o
                0x000000005000f674                msh_auto_complete
 .text.msh_opt_auto_complete
                0x000000005000f7ac      0x18a build/kernel/components/finsh/msh.o
                0x000000005000f7ac                msh_opt_auto_complete
 .text.msh_cmd_opt_id_get
                0x000000005000f936       0x42 build/kernel/components/finsh/msh.o
                0x000000005000f936                msh_cmd_opt_id_get
 .text.msh_opt_list_dump
                0x000000005000f978       0x32 build/kernel/components/finsh/msh.o
                0x000000005000f978                msh_opt_list_dump
 .text.msh_isint
                0x000000005000f9aa       0x42 build/kernel/components/finsh/msh_parse.o
                0x000000005000f9aa                msh_isint
 .text.finsh_rx_ind
                0x000000005000f9ec       0x44 build/kernel/components/finsh/shell.o
 .text.finsh_get_prompt.part.0
                0x000000005000fa30       0x78 build/kernel/components/finsh/shell.o
 .text.finsh_system_init
                0x000000005000faa8       0xb4 build/kernel/components/finsh/shell.o
                0x000000005000faa8                finsh_system_init
 .text.finsh_get_prompt
                0x000000005000fb5c       0x34 build/kernel/components/finsh/shell.o
                0x000000005000fb5c                finsh_get_prompt
 .text.finsh_getchar
                0x000000005000fb90       0x7c build/kernel/components/finsh/shell.o
                0x000000005000fb90                finsh_getchar
 .text.finsh_set_device
                0x000000005000fc0c       0xc6 build/kernel/components/finsh/shell.o
                0x000000005000fc0c                finsh_set_device
 .text.finsh_thread_entry
                0x000000005000fcd2      0x50e build/kernel/components/finsh/shell.o
 .text.rt_tick_get
                0x00000000500101e0       0x1e build/kernel/src/clock.o
                0x00000000500101e0                rt_tick_get
 .text.rt_tick_increase
                0x00000000500101fe       0x4e build/kernel/src/clock.o
                0x00000000500101fe                rt_tick_increase
 .text.rti_start
                0x000000005001024c        0x4 build/kernel/src/components.o
 .text.main_thread_entry
                0x0000000050010250       0x32 build/kernel/src/components.o
 .text.rti_end  0x0000000050010282        0x4 build/kernel/src/components.o
 .text.rti_board_start
                0x0000000050010286        0x4 build/kernel/src/components.o
 .text.rti_board_end
                0x000000005001028a        0x4 build/kernel/src/components.o
 .text.rt_components_board_init
                0x000000005001028e       0x30 build/kernel/src/components.o
                0x000000005001028e                rt_components_board_init
 .text.rt_application_init
                0x00000000500102be       0x5a build/kernel/src/components.o
                0x00000000500102be                rt_application_init
 .text.entry    0x0000000050010318       0x30 build/kernel/src/components.o
                0x0000000050010318                entry
 .text.rt_spin_lock_init
                0x0000000050010348        0x2 build/kernel/src/cpu_up.o
                0x0000000050010348                rt_spin_lock_init
 .text.rt_spin_lock
                0x000000005001034a        0x4 build/kernel/src/cpu_up.o
                0x000000005001034a                rt_spin_lock
 .text.rt_spin_unlock
                0x000000005001034e        0x6 build/kernel/src/cpu_up.o
                0x000000005001034e                rt_spin_unlock
 .text.rt_spin_lock_irqsave
                0x0000000050010354       0x1a build/kernel/src/cpu_up.o
                0x0000000050010354                rt_spin_lock_irqsave
 .text.rt_spin_unlock_irqrestore
                0x000000005001036e       0x1a build/kernel/src/cpu_up.o
                0x000000005001036e                rt_spin_unlock_irqrestore
 .text.rt_cpu_self
                0x0000000050010388        0xa build/kernel/src/cpu_up.o
                0x0000000050010388                rt_cpu_self
 .text.rt_cpu_index
                0x0000000050010392       0x10 build/kernel/src/cpu_up.o
                0x0000000050010392                rt_cpu_index
 .text.idle_thread_entry
                0x00000000500103a2       0x8a build/kernel/src/idle.o
 .text.rt_thread_defunct_enqueue
                0x000000005001042c       0x3a build/kernel/src/idle.o
                0x000000005001042c                rt_thread_defunct_enqueue
 .text.rt_thread_idle_init
                0x0000000050010466       0x5c build/kernel/src/idle.o
                0x0000000050010466                rt_thread_idle_init
 .text._rt_sem_take
                0x00000000500104c2      0x1d6 build/kernel/src/ipc.o
 .text.rt_susp_list_dequeue
                0x0000000050010698       0x64 build/kernel/src/ipc.o
                0x0000000050010698                rt_susp_list_dequeue
 .text.rt_susp_list_resume_all_irq
                0x00000000500106fc       0x42 build/kernel/src/ipc.o
                0x00000000500106fc                rt_susp_list_resume_all_irq
 .text.rt_susp_list_enqueue
                0x000000005001073e       0xa8 build/kernel/src/ipc.o
                0x000000005001073e                rt_susp_list_enqueue
 .text._rt_mutex_take
                0x00000000500107e6      0x592 build/kernel/src/ipc.o
 .text.rt_susp_list_print
                0x0000000050010d78       0x60 build/kernel/src/ipc.o
                0x0000000050010d78                rt_susp_list_print
 .text.rt_sem_init
                0x0000000050010dd8       0xa6 build/kernel/src/ipc.o
                0x0000000050010dd8                rt_sem_init
 .text.rt_sem_take
                0x0000000050010e7e        0x6 build/kernel/src/ipc.o
                0x0000000050010e7e                rt_sem_take
 .text.rt_sem_release
                0x0000000050010e84       0xc2 build/kernel/src/ipc.o
                0x0000000050010e84                rt_sem_release
 .text.rt_sem_control
                0x0000000050010f46      0x128 build/kernel/src/ipc.o
                0x0000000050010f46                rt_sem_control
 .text.rt_mutex_init
                0x000000005001106e       0x6a build/kernel/src/ipc.o
                0x000000005001106e                rt_mutex_init
 .text.rt_mutex_drop_thread
                0x00000000500110d8      0x25a build/kernel/src/ipc.o
                0x00000000500110d8                rt_mutex_drop_thread
 .text.rt_mutex_take
                0x0000000050011332        0x6 build/kernel/src/ipc.o
                0x0000000050011332                rt_mutex_take
 .text.rt_mutex_release
                0x0000000050011338      0x27a build/kernel/src/ipc.o
                0x0000000050011338                rt_mutex_release
 .text.rt_interrupt_enter
                0x00000000500115b2       0x2a build/kernel/src/irq.o
                0x00000000500115b2                rt_interrupt_enter
 .text.rt_interrupt_leave
                0x00000000500115dc       0x24 build/kernel/src/irq.o
                0x00000000500115dc                rt_interrupt_leave
 .text.rt_interrupt_get_nest
                0x0000000050011600       0x2e build/kernel/src/irq.o
                0x0000000050011600                rt_interrupt_get_nest
 .text.print_number
                0x000000005001162e      0x2c6 build/kernel/src/klibc/kstdio.o
 .text.rt_vsnprintf
                0x00000000500118f4      0x4b0 build/kernel/src/klibc/kstdio.o
                0x00000000500118f4                rt_vsnprintf
 .text.rt_snprintf
                0x0000000050011da4       0x20 build/kernel/src/klibc/kstdio.o
                0x0000000050011da4                rt_snprintf
 .text.rt_strerror
                0x0000000050011dc4       0x42 build/kernel/src/klibc/kstdio.o
                0x0000000050011dc4                rt_strerror
 .text.rt_set_errno
                0x0000000050011e06       0x2a build/kernel/src/klibc/kstdio.o
                0x0000000050011e06                rt_set_errno
 .text._rt_errno
                0x0000000050011e30       0x24 build/kernel/src/klibc/kstdio.o
                0x0000000050011e30                _rt_errno
 .text.rt_memset
                0x0000000050011e54       0x98 build/kernel/src/klibc/kstring.o
                0x0000000050011e54                rt_memset
 .text.rt_memcpy
                0x0000000050011eec       0xb4 build/kernel/src/klibc/kstring.o
                0x0000000050011eec                rt_memcpy
 .text.rt_memmove
                0x0000000050011fa0       0x40 build/kernel/src/klibc/kstring.o
                0x0000000050011fa0                rt_memmove
 .text.rt_strncpy
                0x0000000050011fe0       0x2e build/kernel/src/klibc/kstring.o
                0x0000000050011fe0                rt_strncpy
 .text.rt_strncmp
                0x000000005001200e       0x2e build/kernel/src/klibc/kstring.o
                0x000000005001200e                rt_strncmp
 .text.rt_strcmp
                0x000000005001203c       0x32 build/kernel/src/klibc/kstring.o
                0x000000005001203c                rt_strcmp
 .text.rt_strlen
                0x000000005001206e       0x1a build/kernel/src/klibc/kstring.o
                0x000000005001206e                rt_strlen
 .text.rt_console_get_device
                0x0000000050012088        0x6 build/kernel/src/kservice.o
                0x0000000050012088                rt_console_get_device
 .text.rt_console_set_device
                0x000000005001208e       0x44 build/kernel/src/kservice.o
                0x000000005001208e                rt_console_set_device
 .text.rt_hw_console_output
                0x00000000500120d2        0x2 build/kernel/src/kservice.o
                0x00000000500120d2                rt_hw_console_output
 .text.rt_kprintf
                0x00000000500120d4       0x76 build/kernel/src/kservice.o
                0x00000000500120d4                rt_kprintf
 .text.rt_hw_backtrace_frame_get
                0x000000005001214a       0x3a build/kernel/src/kservice.o
                0x000000005001214a                rt_hw_backtrace_frame_get
 .text.rt_hw_backtrace_frame_unwind
                0x0000000050012184       0x3a build/kernel/src/kservice.o
                0x0000000050012184                rt_hw_backtrace_frame_unwind
 .text.rt_show_version
                0x00000000500121be       0x4e build/kernel/src/kservice.o
                0x00000000500121be                rt_show_version
 .text.rt_backtrace_frame
                0x000000005001220c       0x5c build/kernel/src/kservice.o
                0x000000005001220c                rt_backtrace_frame
 .text.rt_backtrace
                0x0000000050012268       0x3c build/kernel/src/kservice.o
                0x0000000050012268                rt_backtrace
 .text.cmd_backtrace
                0x00000000500122a4       0xb4 build/kernel/src/kservice.o
 .text.__rt_ffs
                0x0000000050012358       0x7a build/kernel/src/kservice.o
                0x0000000050012358                __rt_ffs
 .text.rt_assert_handler
                0x00000000500123d2       0x3c build/kernel/src/kservice.o
                0x00000000500123d2                rt_assert_handler
 .text.rt_system_heap_init_generic
                0x000000005001240e       0x66 build/kernel/src/kservice.o
                0x000000005001240e                rt_system_heap_init_generic
 .text.rt_system_heap_init
                0x0000000050012474        0x4 build/kernel/src/kservice.o
                0x0000000050012474                rt_system_heap_init
 .text.rt_free  0x0000000050012478       0x6e build/kernel/src/kservice.o
                0x0000000050012478                rt_free
 .text.rt_memory_info
                0x00000000500124e6       0x8e build/kernel/src/kservice.o
                0x00000000500124e6                rt_memory_info
 .text.rt_malloc
                0x0000000050012574       0x7e build/kernel/src/kservice.o
                0x0000000050012574                rt_malloc
 .text.rt_calloc
                0x00000000500125f2       0x2a build/kernel/src/kservice.o
                0x00000000500125f2                rt_calloc
 .text.rt_realloc
                0x000000005001261c       0x8e build/kernel/src/kservice.o
                0x000000005001261c                rt_realloc
 .text.plug_holes
                0x00000000500126aa       0xb0 build/kernel/src/mem.o
 .text.rt_smem_init
                0x000000005001275a       0xb8 build/kernel/src/mem.o
                0x000000005001275a                rt_smem_init
 .text.rt_smem_alloc
                0x0000000050012812      0x1a4 build/kernel/src/mem.o
                0x0000000050012812                rt_smem_alloc
 .text.rt_smem_free
                0x00000000500129b6      0x14e build/kernel/src/mem.o
                0x00000000500129b6                rt_smem_free
 .text.rt_smem_realloc
                0x0000000050012b04      0x1bc build/kernel/src/mem.o
                0x0000000050012b04                rt_smem_realloc
 .text._match_name
                0x0000000050012cc0       0x32 build/kernel/src/object.o
 .text.rt_object_get_information
                0x0000000050012cf2       0x2e build/kernel/src/object.o
                0x0000000050012cf2                rt_object_get_information
 .text.rt_object_init
                0x0000000050012d20      0x11c build/kernel/src/object.o
                0x0000000050012d20                rt_object_init
 .text.rt_object_detach
                0x0000000050012e3c       0xa8 build/kernel/src/object.o
                0x0000000050012e3c                rt_object_detach
 .text.rt_object_allocate
                0x0000000050012ee4      0x104 build/kernel/src/object.o
                0x0000000050012ee4                rt_object_allocate
 .text.rt_object_delete
                0x0000000050012fe8       0xce build/kernel/src/object.o
                0x0000000050012fe8                rt_object_delete
 .text.rt_object_is_systemobject
                0x00000000500130b6       0x42 build/kernel/src/object.o
                0x00000000500130b6                rt_object_is_systemobject
 .text.rt_object_get_type
                0x00000000500130f8       0x42 build/kernel/src/object.o
                0x00000000500130f8                rt_object_get_type
 .text.rt_object_for_each
                0x000000005001313a       0xd6 build/kernel/src/object.o
                0x000000005001313a                rt_object_for_each
 .text.rt_object_find
                0x0000000050013210       0x66 build/kernel/src/object.o
                0x0000000050013210                rt_object_find
 .text.rt_sched_thread_init_ctx
                0x0000000050013276        0x6 build/kernel/src/scheduler_comm.o
                0x0000000050013276                rt_sched_thread_init_ctx
 .text.rt_sched_thread_timer_start
                0x000000005001327c       0x12 build/kernel/src/scheduler_comm.o
                0x000000005001327c                rt_sched_thread_timer_start
 .text.rt_sched_thread_timer_stop
                0x000000005001328e       0x2e build/kernel/src/scheduler_comm.o
                0x000000005001328e                rt_sched_thread_timer_stop
 .text.rt_sched_thread_get_stat
                0x00000000500132bc        0x8 build/kernel/src/scheduler_comm.o
                0x00000000500132bc                rt_sched_thread_get_stat
 .text.rt_sched_thread_get_curr_prio
                0x00000000500132c4        0x6 build/kernel/src/scheduler_comm.o
                0x00000000500132c4                rt_sched_thread_get_curr_prio
 .text.rt_sched_thread_get_init_prio
                0x00000000500132ca        0x6 build/kernel/src/scheduler_comm.o
                0x00000000500132ca                rt_sched_thread_get_init_prio
 .text.rt_sched_thread_is_suspended
                0x00000000500132d0        0xc build/kernel/src/scheduler_comm.o
                0x00000000500132d0                rt_sched_thread_is_suspended
 .text.rt_sched_thread_close
                0x00000000500132dc        0xa build/kernel/src/scheduler_comm.o
                0x00000000500132dc                rt_sched_thread_close
 .text.rt_sched_thread_ready
                0x00000000500132e6       0x58 build/kernel/src/scheduler_comm.o
                0x00000000500132e6                rt_sched_thread_ready
 .text.rt_sched_tick_increase
                0x000000005001333e       0x5a build/kernel/src/scheduler_comm.o
                0x000000005001333e                rt_sched_tick_increase
 .text.rt_sched_thread_change_priority
                0x0000000050013398       0x8c build/kernel/src/scheduler_comm.o
                0x0000000050013398                rt_sched_thread_change_priority
 .text.rt_scheduler_stack_check
                0x0000000050013424       0xa6 build/kernel/src/scheduler_comm.o
                0x0000000050013424                rt_scheduler_stack_check
 .text.rt_sched_lock
                0x00000000500134ca       0x1e build/kernel/src/scheduler_up.o
                0x00000000500134ca                rt_sched_lock
 .text.rt_sched_unlock
                0x00000000500134e8       0x10 build/kernel/src/scheduler_up.o
                0x00000000500134e8                rt_sched_unlock
 .text.rt_system_scheduler_init
                0x00000000500134f8       0x24 build/kernel/src/scheduler_up.o
                0x00000000500134f8                rt_system_scheduler_init
 .text.rt_sched_thread_startup
                0x000000005001351c       0x16 build/kernel/src/scheduler_up.o
                0x000000005001351c                rt_sched_thread_startup
 .text.rt_sched_thread_init_priv
                0x0000000050013532       0x58 build/kernel/src/scheduler_up.o
                0x0000000050013532                rt_sched_thread_init_priv
 .text.rt_sched_insert_thread
                0x000000005001358a       0xac build/kernel/src/scheduler_up.o
                0x000000005001358a                rt_sched_insert_thread
 .text.rt_sched_remove_thread
                0x0000000050013636       0x7a build/kernel/src/scheduler_up.o
                0x0000000050013636                rt_sched_remove_thread
 .text.rt_system_scheduler_start
                0x00000000500136b0       0x42 build/kernel/src/scheduler_up.o
                0x00000000500136b0                rt_system_scheduler_start
 .text.rt_schedule
                0x00000000500136f2      0x110 build/kernel/src/scheduler_up.o
                0x00000000500136f2                rt_schedule
 .text.rt_sched_unlock_n_resched
                0x0000000050013802       0x22 build/kernel/src/scheduler_up.o
                0x0000000050013802                rt_sched_unlock_n_resched
 .text.rt_enter_critical
                0x0000000050013824       0x2e build/kernel/src/scheduler_up.o
                0x0000000050013824                rt_enter_critical
 .text.rt_exit_critical
                0x0000000050013852       0x46 build/kernel/src/scheduler_up.o
                0x0000000050013852                rt_exit_critical
 .text.rt_exit_critical_safe
                0x0000000050013898        0x4 build/kernel/src/scheduler_up.o
                0x0000000050013898                rt_exit_critical_safe
 .text.rt_critical_level
                0x000000005001389c        0x6 build/kernel/src/scheduler_up.o
                0x000000005001389c                rt_critical_level
 .text.rt_sched_thread_bind_cpu
                0x00000000500138a2        0x4 build/kernel/src/scheduler_up.o
                0x00000000500138a2                rt_sched_thread_bind_cpu
 .text._thread_timeout
                0x00000000500138a6       0x9a build/kernel/src/thread.o
 .text._thread_init.constprop.0
                0x0000000050013940       0xb4 build/kernel/src/thread.o
 .text.rt_thread_init
                0x00000000500139f4       0xac build/kernel/src/thread.o
                0x00000000500139f4                rt_thread_init
 .text.rt_thread_self
                0x0000000050013aa0       0x10 build/kernel/src/thread.o
                0x0000000050013aa0                rt_thread_self
 .text.rt_thread_close
                0x0000000050013ab0       0x6c build/kernel/src/thread.o
                0x0000000050013ab0                rt_thread_close
 .text._thread_exit
                0x0000000050013b1c       0x32 build/kernel/src/thread.o
 .text._thread_detach
                0x0000000050013b4e       0x98 build/kernel/src/thread.o
 .text.rt_thread_detach
                0x0000000050013be6       0x80 build/kernel/src/thread.o
                0x0000000050013be6                rt_thread_detach
 .text.rt_thread_create
                0x0000000050013c66       0x80 build/kernel/src/thread.o
                0x0000000050013c66                rt_thread_create
 .text.rt_thread_delete
                0x0000000050013ce6       0x80 build/kernel/src/thread.o
                0x0000000050013ce6                rt_thread_delete
 .text.rt_thread_suspend_to_list
                0x0000000050013d66      0x166 build/kernel/src/thread.o
                0x0000000050013d66                rt_thread_suspend_to_list
 .text.rt_thread_suspend_with_flag
                0x0000000050013ecc        0xa build/kernel/src/thread.o
                0x0000000050013ecc                rt_thread_suspend_with_flag
 .text.rt_thread_resume
                0x0000000050013ed6       0x86 build/kernel/src/thread.o
                0x0000000050013ed6                rt_thread_resume
 .text.rt_thread_startup
                0x0000000050013f5c       0x80 build/kernel/src/thread.o
                0x0000000050013f5c                rt_thread_startup
 .text.rt_thread_control
                0x0000000050013fdc       0xf0 build/kernel/src/thread.o
                0x0000000050013fdc                rt_thread_control
 .text._timer_start
                0x00000000500140cc       0xa0 build/kernel/src/timer.o
 .text._timer_check
                0x000000005001416c      0x108 build/kernel/src/timer.o
 .text._timer_thread_entry
                0x0000000050014274       0x34 build/kernel/src/timer.o
 .text.rt_timer_init
                0x00000000500142a8       0xb8 build/kernel/src/timer.o
                0x00000000500142a8                rt_timer_init
 .text.rt_timer_detach
                0x0000000050014360       0xbe build/kernel/src/timer.o
                0x0000000050014360                rt_timer_detach
 .text.rt_timer_start
                0x000000005001441e      0x112 build/kernel/src/timer.o
                0x000000005001441e                rt_timer_start
 .text.rt_timer_stop
                0x0000000050014530       0xbc build/kernel/src/timer.o
                0x0000000050014530                rt_timer_stop
 .text.rt_timer_control
                0x00000000500145ec      0x154 build/kernel/src/timer.o
                0x00000000500145ec                rt_timer_control
 .text.rt_timer_check
                0x0000000050014740       0x80 build/kernel/src/timer.o
                0x0000000050014740                rt_timer_check
 .text.rt_system_timer_init
                0x00000000500147c0       0x18 build/kernel/src/timer.o
                0x00000000500147c0                rt_system_timer_init
 .text.rt_system_timer_thread_init
                0x00000000500147d8       0x80 build/kernel/src/timer.o
                0x00000000500147d8                rt_system_timer_thread_init
 *(.gnu.linkonce.t.*)
 *(.plt)
 *(.gnu_warning)
 *(.gcc_execpt_table)
 *(.glue_7)
 *(.glue_7t)
 *(.ARM.extab)
 *(.gnu.linkonce.armextab.*)
                0x0000000050014858                . = ALIGN (0x8)
 *fill*         0x0000000050014858        0x0 
                0x0000000050014858                __fsymtab_start = .
 *(FSymTab)
 FSymTab        0x0000000050014858       0x20 build/kernel/components/drivers/pin/pin.o
                0x0000000050014858                __fsym_pin
 FSymTab        0x0000000050014878       0x60 build/kernel/components/finsh/cmd.o
                0x0000000050014878                __fsym_list
                0x0000000050014898                __fsym_version
                0x00000000500148b8                __fsym_clear
 FSymTab        0x00000000500148d8       0x60 build/kernel/components/finsh/msh.o
                0x00000000500148d8                __fsym_free
                0x00000000500148f8                __fsym_ps
                0x0000000050014918                __fsym_help
 FSymTab        0x0000000050014938       0x20 build/kernel/src/kservice.o
                0x0000000050014938                __fsym_backtrace
                0x0000000050014958                __fsymtab_end = .
                0x0000000050014958                . = ALIGN (0x8)
                0x0000000050014958                __vsymtab_start = .
 *(VSymTab)
                0x0000000050014958                __vsymtab_end = .
                0x0000000050014958                . = ALIGN (0x8)
                0x0000000050014958                . = ALIGN (0x8)
                0x0000000050014958                __rt_init_start = .
 *(SORT_BY_NAME(.rti_fn*))
 .rti_fn.0      0x0000000050014958        0x8 build/kernel/src/components.o
                0x0000000050014958                __rt_init_rti_start
 .rti_fn.0.end  0x0000000050014960        0x8 build/kernel/src/components.o
                0x0000000050014960                __rt_init_rti_board_start
 .rti_fn.1      0x0000000050014968        0x8 build/kernel/components/drivers/cputime/cputime_riscv.o
                0x0000000050014968                __rt_init_riscv_cputime_init
 .rti_fn.1.end  0x0000000050014970        0x8 build/kernel/src/components.o
                0x0000000050014970                __rt_init_rti_board_end
 .rti_fn.6      0x0000000050014978        0x8 build/kernel/components/finsh/shell.o
                0x0000000050014978                __rt_init_finsh_system_init
 .rti_fn.6.end  0x0000000050014980        0x8 build/kernel/src/components.o
                0x0000000050014980                __rt_init_rti_end
                0x0000000050014988                __rt_init_end = .
                0x0000000050014988                . = ALIGN (0x8)
                0x0000000050014988                __rt_utest_tc_tab_start = .
 *(UtestTcTab)
                0x0000000050014988                __rt_utest_tc_tab_end = .

.init
 *(.init)

.fini
 *(.fini)

.interp
 *(.interp)

.note-ABI-tag
 *(.note-ABI-tag)

.rodata         0x0000000050014990     0x3ae0
                0x00000000500149c0                . = ALIGN (0x40)
 *fill*         0x0000000050014990       0x30 
                0x00000000500149c0                __rodata_start = .
 *(.rodata)
 .rodata        0x00000000500149c0      0x101 /opt/Xuantie-900-gcc-elf-newlib-x86_64-V2.8.1/bin/../lib/gcc/riscv64-unknown-elf/10.4.0/../../../../riscv64-unknown-elf/lib/rv64imafdc/lp64d/libc.a(lib_a-ctype_.o)
                0x00000000500149c0                _ctype_
 *fill*         0x0000000050014ac1        0x7 
 .rodata        0x0000000050014ac8      0x190 /opt/Xuantie-900-gcc-elf-newlib-x86_64-V2.8.1/bin/../lib/gcc/riscv64-unknown-elf/10.4.0/../../../../riscv64-unknown-elf/lib/rv64imafdc/lp64d/libc.a(lib_a-vfprintf.o)
 .rodata        0x0000000050014c58      0x262 /opt/Xuantie-900-gcc-elf-newlib-x86_64-V2.8.1/bin/../lib/gcc/riscv64-unknown-elf/10.4.0/../../../../riscv64-unknown-elf/lib/rv64imafdc/lp64d/libc.a(lib_a-ldtoa.o)
 *fill*         0x0000000050014eba        0x6 
 .rodata        0x0000000050014ec0      0x128 /opt/Xuantie-900-gcc-elf-newlib-x86_64-V2.8.1/bin/../lib/gcc/riscv64-unknown-elf/10.4.0/../../../../riscv64-unknown-elf/lib/rv64imafdc/lp64d/libc.a(lib_a-mprec.o)
                0x0000000050014ed0                __mprec_tens
                0x0000000050014f98                __mprec_tinytens
                0x0000000050014fc0                __mprec_bigtens
 .rodata        0x0000000050014fe8      0x190 /opt/Xuantie-900-gcc-elf-newlib-x86_64-V2.8.1/bin/../lib/gcc/riscv64-unknown-elf/10.4.0/../../../../riscv64-unknown-elf/lib/rv64imafdc/lp64d/libc.a(lib_a-svfprintf.o)
 .rodata        0x0000000050015178      0x190 /opt/Xuantie-900-gcc-elf-newlib-x86_64-V2.8.1/bin/../lib/gcc/riscv64-unknown-elf/10.4.0/../../../../riscv64-unknown-elf/lib/rv64imafdc/lp64d/libc.a(lib_a-vfiprintf.o)
 .rodata        0x0000000050015308      0x190 /opt/Xuantie-900-gcc-elf-newlib-x86_64-V2.8.1/bin/../lib/gcc/riscv64-unknown-elf/10.4.0/../../../../riscv64-unknown-elf/lib/rv64imafdc/lp64d/libc.a(lib_a-svfiprintf.o)
 .rodata        0x0000000050015498       0x3c /opt/Xuantie-900-gcc-elf-newlib-x86_64-V2.8.1/bin/../lib/gcc/riscv64-unknown-elf/10.4.0/rv64imafdc/lp64d/libgcc.a(multf3.o)
 *fill*         0x00000000500154d4        0x4 
 .rodata        0x00000000500154d8      0x100 /opt/Xuantie-900-gcc-elf-newlib-x86_64-V2.8.1/bin/../lib/gcc/riscv64-unknown-elf/10.4.0/rv64imafdc/lp64d/libgcc.a(_clz.o)
                0x00000000500154d8                __clz_tab
 *(.rodata.*)
 .rodata.__rt_libc_exit.str1.8
                0x00000000500155d8       0x36 build/kernel/components/libc/compilers/common/cstdlib.o
 *fill*         0x000000005001560e        0x2 
 .rodata._close_r.str1.8
                0x0000000050015610       0x47 build/kernel/components/libc/compilers/newlib/syscalls.o
                                         0x4e (size before relaxing)
 *fill*         0x0000000050015657        0x1 
 .rodata.__func__.0
                0x0000000050015658        0x9 build/kernel/components/libc/compilers/newlib/syscalls.o
 *fill*         0x0000000050015661        0x7 
 .rodata.__func__.7
                0x0000000050015668        0x9 build/kernel/components/libc/compilers/newlib/syscalls.o
 *fill*         0x0000000050015671        0x7 
 .rodata.__func__.8
                0x0000000050015678        0x9 build/kernel/components/libc/compilers/newlib/syscalls.o
 *fill*         0x0000000050015681        0x7 
 .rodata.main.str1.8
                0x0000000050015688       0x10 build/applications/main.o
 .rodata.rt_hw_board_init.str1.8
                0x0000000050015698       0x39 build/board/board.o
 *fill*         0x00000000500156d1        0x7 
 .rodata.uart_isr.str1.8
                0x00000000500156d8       0x1a build/board/board_uart.o
 .rodata.rt_hw_uart_init.str1.8
                0x00000000500156f2        0x6 build/board/board_uart.o
 *fill*         0x00000000500156f2        0x6 
 .rodata.drv_uart_ops
                0x00000000500156f8       0x28 build/board/board_uart.o
 .rodata.g_soc_info
                0x0000000050015720       0x50 build/board/devices.o
                0x0000000050015720                g_soc_info
 .rodata.rt_hw_interrupt_handler.str1.8
                0x0000000050015770       0x23 build/board/interrupt.o
 *fill*         0x0000000050015793        0x5 
 .rodata.rt_hw_tick_init.str1.8
                0x0000000050015798       0x30 build/board/tick.o
 .rodata.trap_c.str1.8
                0x00000000500157c8       0x45 build/board/trap_c.o
                                         0x4d (size before relaxing)
 *fill*         0x000000005001580d        0x3 
 .rodata.rt_device_unregister.str1.8
                0x0000000050015810       0x78 build/kernel/components/drivers/core/device.o
 .rodata.rt_device_init.str1.8
                0x0000000050015888       0x4d build/kernel/components/drivers/core/device.o
                                         0x56 (size before relaxing)
 *fill*         0x00000000500158d5        0x3 
 .rodata.rt_device_open.str1.8
                0x00000000500158d8       0x14 build/kernel/components/drivers/core/device.o
 *fill*         0x00000000500158ec        0x4 
 .rodata.__FUNCTION__.1
                0x00000000500158f0       0x1a build/kernel/components/drivers/core/device.o
 *fill*         0x000000005001590a        0x6 
 .rodata.__FUNCTION__.3
                0x0000000050015910       0x10 build/kernel/components/drivers/core/device.o
 .rodata.__FUNCTION__.4
                0x0000000050015920        0xf build/kernel/components/drivers/core/device.o
 *fill*         0x000000005001592f        0x1 
 .rodata.__FUNCTION__.5
                0x0000000050015930       0x10 build/kernel/components/drivers/core/device.o
 .rodata.__FUNCTION__.6
                0x0000000050015940        0xf build/kernel/components/drivers/core/device.o
 *fill*         0x000000005001594f        0x1 
 .rodata.clock_cpu_setops.str1.8
                0x0000000050015950       0x40 build/kernel/components/drivers/cputime/cputime.o
 .rodata.__FUNCTION__.0
                0x0000000050015990       0x11 build/kernel/components/drivers/cputime/cputime.o
 *fill*         0x00000000500159a1        0x7 
 .rodata._riscv_ops
                0x00000000500159a8       0x18 build/kernel/components/drivers/cputime/cputime_riscv.o
 .rodata.rt_completion_init.str1.8
                0x00000000500159c0       0x16 build/kernel/components/drivers/ipc/completion_up.o
 *fill*         0x00000000500159d6        0x2 
 .rodata.rt_completion_wait_flags.str1.8
                0x00000000500159d8       0xd1 build/kernel/components/drivers/ipc/completion_up.o
                                         0xd9 (size before relaxing)
 *fill*         0x0000000050015aa9        0x7 
 .rodata.__FUNCTION__.1
                0x0000000050015ab0       0x19 build/kernel/components/drivers/ipc/completion_up.o
 *fill*         0x0000000050015ac9        0x7 
 .rodata.__FUNCTION__.2
                0x0000000050015ad0       0x13 build/kernel/components/drivers/ipc/completion_up.o
 *fill*         0x0000000050015ae3        0x5 
 .rodata.rt_data_queue_init.str1.8
                0x0000000050015ae8       0x21 build/kernel/components/drivers/ipc/dataqueue.o
 *fill*         0x0000000050015b09        0x7 
 .rodata.rt_data_queue_push.str1.8
                0x0000000050015b10       0x20 build/kernel/components/drivers/ipc/dataqueue.o
                                         0xb7 (size before relaxing)
 .rodata.__FUNCTION__.1
                0x0000000050015b30       0x15 build/kernel/components/drivers/ipc/dataqueue.o
 *fill*         0x0000000050015b45        0x3 
 .rodata.__FUNCTION__.2
                0x0000000050015b48       0x14 build/kernel/components/drivers/ipc/dataqueue.o
 *fill*         0x0000000050015b5c        0x4 
 .rodata.__FUNCTION__.5
                0x0000000050015b60       0x13 build/kernel/components/drivers/ipc/dataqueue.o
 *fill*         0x0000000050015b73        0x5 
 .rodata.__FUNCTION__.6
                0x0000000050015b78       0x13 build/kernel/components/drivers/ipc/dataqueue.o
 *fill*         0x0000000050015b8b        0x5 
 .rodata._pin_cmd_print_usage.str1.8
                0x0000000050015b90      0x1ef build/kernel/components/drivers/pin/pin.o
                                        0x1f2 (size before relaxing)
 *fill*         0x0000000050015d7f        0x1 
 .rodata._pin_cmd.str1.8
                0x0000000050015d80       0xcc build/kernel/components/drivers/pin/pin.o
 *fill*         0x0000000050015e4c        0x4 
 .rodata.__FUNCTION__.0
                0x0000000050015e50        0xb build/kernel/components/drivers/pin/pin.o
 *fill*         0x0000000050015e5b        0x5 
 .rodata.__FUNCTION__.1
                0x0000000050015e60        0xc build/kernel/components/drivers/pin/pin.o
 *fill*         0x0000000050015e6c        0x4 
 .rodata.__FUNCTION__.2
                0x0000000050015e70        0xd build/kernel/components/drivers/pin/pin.o
 *fill*         0x0000000050015e7d        0x3 
 .rodata.__FUNCTION__.3
                0x0000000050015e80        0xc build/kernel/components/drivers/pin/pin.o
 *fill*         0x0000000050015e8c        0x4 
 .rodata.name   0x0000000050015e90       0x14 build/kernel/components/drivers/pin/pin.o
                0x0000000050015e90                __fsym_pin_desc
                0x0000000050015ea0                __fsym_pin_name
 *fill*         0x0000000050015ea4        0x4 
 .rodata._serial_fifo_calc_recved_len.str1.8
                0x0000000050015ea8       0x13 build/kernel/components/drivers/serial/serial.o
 .rodata.rt_serial_control.str1.8
                0x0000000050015ebb        0xf build/kernel/components/drivers/serial/serial.o
 *fill*         0x0000000050015ebb        0x1 
 .rodata.rt_serial_control
                0x0000000050015ebc       0x28 build/kernel/components/drivers/serial/serial.o
 *fill*         0x0000000050015ee4        0x4 
 .rodata.rt_serial_open.str1.8
                0x0000000050015ee8       0x42 build/kernel/components/drivers/serial/serial.o
 *fill*         0x0000000050015f2a        0x6 
 .rodata.rt_serial_write.str1.8
                0x0000000050015f30        0xe build/kernel/components/drivers/serial/serial.o
 *fill*         0x0000000050015f3e        0x2 
 .rodata.rt_serial_read.str1.8
                0x0000000050015f40       0x7e build/kernel/components/drivers/serial/serial.o
 *fill*         0x0000000050015fbe        0x2 
 .rodata.rt_hw_serial_register.str1.8
                0x0000000050015fc0       0x12 build/kernel/components/drivers/serial/serial.o
 *fill*         0x0000000050015fd2        0x6 
 .rodata.__FUNCTION__.10
                0x0000000050015fd8        0xf build/kernel/components/drivers/serial/serial.o
 *fill*         0x0000000050015fe7        0x1 
 .rodata.__FUNCTION__.11
                0x0000000050015fe8        0xf build/kernel/components/drivers/serial/serial.o
 *fill*         0x0000000050015ff7        0x1 
 .rodata.__FUNCTION__.13
                0x0000000050015ff8        0xf build/kernel/components/drivers/serial/serial.o
 *fill*         0x0000000050016007        0x1 
 .rodata.__FUNCTION__.14
                0x0000000050016008       0x10 build/kernel/components/drivers/serial/serial.o
 .rodata.__FUNCTION__.15
                0x0000000050016018       0x12 build/kernel/components/drivers/serial/serial.o
 *fill*         0x000000005001602a        0x6 
 .rodata.__FUNCTION__.16
                0x0000000050016030       0x16 build/kernel/components/drivers/serial/serial.o
 *fill*         0x0000000050016046        0x2 
 .rodata.__FUNCTION__.3
                0x0000000050016048        0xf build/kernel/components/drivers/serial/serial.o
 *fill*         0x0000000050016057        0x1 
 .rodata.__FUNCTION__.4
                0x0000000050016058        0xf build/kernel/components/drivers/serial/serial.o
 *fill*         0x0000000050016067        0x1 
 .rodata.__FUNCTION__.5
                0x0000000050016068       0x10 build/kernel/components/drivers/serial/serial.o
 .rodata.__FUNCTION__.7
                0x0000000050016078       0x1d build/kernel/components/drivers/serial/serial.o
 *fill*         0x0000000050016095        0x3 
 .rodata.__FUNCTION__.8
                0x0000000050016098       0x1d build/kernel/components/drivers/serial/serial.o
 *fill*         0x00000000500160b5        0x3 
 .rodata.__FUNCTION__.9
                0x00000000500160b8        0xf build/kernel/components/drivers/serial/serial.o
 *fill*         0x00000000500160c7        0x1 
 .rodata.clear.str1.8
                0x00000000500160c8        0x8 build/kernel/components/finsh/cmd.o
 .rodata.list_thread.str1.8
                0x00000000500160d0      0x121 build/kernel/components/finsh/cmd.o
                                        0x139 (size before relaxing)
 *fill*         0x00000000500161f1        0x7 
 .rodata.list_sem.str1.8
                0x00000000500161f8       0x68 build/kernel/components/finsh/cmd.o
 .rodata.list_event.str1.8
                0x0000000050016260       0x7a build/kernel/components/finsh/cmd.o
 *fill*         0x00000000500162da        0x6 
 .rodata.list_mutex.str1.8
                0x00000000500162e0       0x9e build/kernel/components/finsh/cmd.o
 *fill*         0x000000005001637e        0x2 
 .rodata.list_mailbox.str1.8
                0x0000000050016380       0x7e build/kernel/components/finsh/cmd.o
 *fill*         0x00000000500163fe        0x2 
 .rodata.list_msgqueue.str1.8
                0x0000000050016400       0x71 build/kernel/components/finsh/cmd.o
 *fill*         0x0000000050016471        0x7 
 .rodata.list_mempool.str1.8
                0x0000000050016478       0x94 build/kernel/components/finsh/cmd.o
 *fill*         0x000000005001650c        0x4 
 .rodata.list_timer.str1.8
                0x0000000050016510       0xda build/kernel/components/finsh/cmd.o
 *fill*         0x00000000500165ea        0x6 
 .rodata.list_device.str1.8
                0x00000000500165f0       0x73 build/kernel/components/finsh/cmd.o
 *fill*         0x0000000050016663        0x5 
 .rodata.cmd_list.str1.8
                0x0000000050016668       0x24 build/kernel/components/finsh/cmd.o
 .rodata.cmd_list
                0x000000005001668c       0x2c build/kernel/components/finsh/cmd.o
 .rodata.str1.8
                0x00000000500166b8      0x29b build/kernel/components/finsh/cmd.o
 *fill*         0x0000000050016953        0x5 
 .rodata.device_type_str
                0x0000000050016958       0xf8 build/kernel/components/finsh/cmd.o
 .rodata.name   0x0000000050016a50       0x6e build/kernel/components/finsh/cmd.o
                0x0000000050016a50                __fsym_list_desc
                0x0000000050016a60                __fsym_list_name
                0x0000000050016a68                __fsym_version_desc
                0x0000000050016a90                __fsym_version_name
                0x0000000050016a98                __fsym_clear_desc
                0x0000000050016ab8                __fsym_clear_name
 *fill*         0x0000000050016abe        0x2 
 .rodata.msh_help.str1.8
                0x0000000050016ac0       0x2c build/kernel/components/finsh/msh.o
                                         0x32 (size before relaxing)
 *fill*         0x0000000050016aec        0x4 
 .rodata.cmd_free.str1.8
                0x0000000050016af0       0x3f build/kernel/components/finsh/msh.o
 *fill*         0x0000000050016b2f        0x1 
 .rodata.msh_exec.str1.8
                0x0000000050016b30       0x58 build/kernel/components/finsh/msh.o
 .rodata.msh_auto_complete.str1.8
                0x0000000050016b88       0x58 build/kernel/components/finsh/msh.o
                                          0x4 (size before relaxing)
 .rodata.msh_opt_list_dump.str1.8
                0x0000000050016b88       0x10 build/kernel/components/finsh/msh.o
 .rodata.name   0x0000000050016b98       0x75 build/kernel/components/finsh/msh.o
                0x0000000050016b98                __fsym_free_desc
                0x0000000050016bc0                __fsym_free_name
                0x0000000050016bc8                __fsym_ps_desc
                0x0000000050016be8                __fsym_ps_name
                0x0000000050016bf0                __fsym_help_desc
                0x0000000050016c08                __fsym_help_name
 *fill*         0x0000000050016c0d        0x3 
 .rodata.finsh_rx_ind.str1.8
                0x0000000050016c10       0x11 build/kernel/components/finsh/shell.o
 *fill*         0x0000000050016c21        0x7 
 .rodata.finsh_get_prompt.part.0.str1.8
                0x0000000050016c28        0x5 build/kernel/components/finsh/shell.o
 *fill*         0x0000000050016c2d        0x3 
 .rodata.finsh_system_init.str1.8
                0x0000000050016c30       0x25 build/kernel/components/finsh/shell.o
 *fill*         0x0000000050016c55        0x3 
 .rodata.finsh_set_device.str1.8
                0x0000000050016c58       0x20 build/kernel/components/finsh/shell.o
 .rodata.finsh_thread_entry.str1.8
                0x0000000050016c78       0x33 build/kernel/components/finsh/shell.o
                                         0x3b (size before relaxing)
 *fill*         0x0000000050016cab        0x5 
 .rodata.__FUNCTION__.3
                0x0000000050016cb0        0xd build/kernel/components/finsh/shell.o
 *fill*         0x0000000050016cbd        0x3 
 .rodata.__FUNCTION__.4
                0x0000000050016cc0       0x11 build/kernel/components/finsh/shell.o
 *fill*         0x0000000050016cd1        0x7 
 .rodata.__FUNCTION__.5
                0x0000000050016cd8        0xe build/kernel/components/finsh/shell.o
 *fill*         0x0000000050016ce6        0x2 
 .rodata.__FUNCTION__.6
                0x0000000050016ce8       0x16 build/kernel/components/finsh/shell.o
 *fill*         0x0000000050016cfe        0x2 
 .rodata.rt_tick_increase.str1.8
                0x0000000050016d00       0x1c build/kernel/src/clock.o
 *fill*         0x0000000050016d1c        0x4 
 .rodata.__FUNCTION__.1
                0x0000000050016d20       0x11 build/kernel/src/clock.o
 *fill*         0x0000000050016d31        0x7 
 .rodata.rt_application_init.str1.8
                0x0000000050016d38       0x17 build/kernel/src/components.o
 *fill*         0x0000000050016d4f        0x1 
 .rodata.__FUNCTION__.0
                0x0000000050016d50       0x14 build/kernel/src/components.o
 *fill*         0x0000000050016d64        0x4 
 .rodata.rt_thread_idle_init.str1.8
                0x0000000050016d68        0x8 build/kernel/src/idle.o
 .rodata._rt_sem_take.str1.8
                0x0000000050016d70       0x55 build/kernel/src/ipc.o
                                         0xef (size before relaxing)
 *fill*         0x0000000050016dc5        0x3 
 .rodata.rt_susp_list_dequeue.str1.8
                0x0000000050016dc8       0x15 build/kernel/src/ipc.o
 *fill*         0x0000000050016ddd        0x3 
 .rodata._rt_mutex_take.str1.8
                0x0000000050016de0       0x8f build/kernel/src/ipc.o
 *fill*         0x0000000050016e6f        0x1 
 .rodata.rt_susp_list_print.str1.8
                0x0000000050016e70        0xa build/kernel/src/ipc.o
 *fill*         0x0000000050016e7a        0x6 
 .rodata.rt_sem_init.str1.8
                0x0000000050016e80       0x51 build/kernel/src/ipc.o
 *fill*         0x0000000050016ed1        0x7 
 .rodata.rt_mutex_drop_thread.str1.8
                0x0000000050016ed8       0x48 build/kernel/src/ipc.o
 .rodata.rt_mutex_release.str1.8
                0x0000000050016f20       0x2a build/kernel/src/ipc.o
 *fill*         0x0000000050016f4a        0x6 
 .rodata.__FUNCTION__.23
                0x0000000050016f50       0x11 build/kernel/src/ipc.o
 *fill*         0x0000000050016f61        0x7 
 .rodata.__FUNCTION__.24
                0x0000000050016f68        0xf build/kernel/src/ipc.o
 *fill*         0x0000000050016f77        0x1 
 .rodata.__FUNCTION__.29
                0x0000000050016f78       0x15 build/kernel/src/ipc.o
 *fill*         0x0000000050016f8d        0x3 
 .rodata.__FUNCTION__.31
                0x0000000050016f90        0xe build/kernel/src/ipc.o
 *fill*         0x0000000050016f9e        0x2 
 .rodata.__FUNCTION__.32
                0x0000000050016fa0        0xf build/kernel/src/ipc.o
 *fill*         0x0000000050016faf        0x1 
 .rodata.__FUNCTION__.33
                0x0000000050016fb0        0xf build/kernel/src/ipc.o
 *fill*         0x0000000050016fbf        0x1 
 .rodata.__FUNCTION__.34
                0x0000000050016fc0        0xd build/kernel/src/ipc.o
 *fill*         0x0000000050016fcd        0x3 
 .rodata.__FUNCTION__.38
                0x0000000050016fd0        0xc build/kernel/src/ipc.o
 *fill*         0x0000000050016fdc        0x4 
 .rodata.__FUNCTION__.39
                0x0000000050016fe0       0x15 build/kernel/src/ipc.o
 *fill*         0x0000000050016ff5        0x3 
 .rodata.__FUNCTION__.40
                0x0000000050016ff8       0x15 build/kernel/src/ipc.o
 *fill*         0x000000005001700d        0x3 
 .rodata.rt_vsnprintf.str1.8
                0x0000000050017010        0x7 build/kernel/src/klibc/kstdio.o
 *fill*         0x0000000050017017        0x1 
 .rodata.rt_vsnprintf
                0x0000000050017018      0x150 build/kernel/src/klibc/kstdio.o
 .rodata.rt_strerror.str1.8
                0x0000000050017168        0x8 build/kernel/src/klibc/kstdio.o
 .rodata.str1.8
                0x0000000050017170       0x78 build/kernel/src/klibc/kstdio.o
 .rodata.large_digits.1
                0x00000000500171e8       0x11 build/kernel/src/klibc/kstdio.o
 *fill*         0x00000000500171f9        0x7 
 .rodata.rt_errno_strs
                0x0000000050017200       0xf0 build/kernel/src/klibc/kstdio.o
 .rodata.small_digits.0
                0x00000000500172f0       0x11 build/kernel/src/klibc/kstdio.o
 *fill*         0x0000000050017301        0x7 
 .rodata.rt_hw_us_delay.str1.8
                0x0000000050017308       0x8f build/kernel/src/kservice.o
                                         0x96 (size before relaxing)
 *fill*         0x0000000050017397        0x1 
 .rodata.rt_hw_backtrace_frame_get.str1.8
                0x0000000050017398       0x16 build/kernel/src/kservice.o
 *fill*         0x00000000500173ae        0x2 
 .rodata.rt_show_version.str1.8
                0x00000000500173b0       0xaa build/kernel/src/kservice.o
 *fill*         0x000000005001745a        0x6 
 .rodata.rt_backtrace_frame.str1.8
                0x0000000050017460       0x37 build/kernel/src/kservice.o
                                         0x3a (size before relaxing)
 *fill*         0x0000000050017497        0x1 
 .rodata.cmd_backtrace.str1.8
                0x0000000050017498       0xea build/kernel/src/kservice.o
 *fill*         0x0000000050017582        0x6 
 .rodata.rt_assert_handler.str1.8
                0x0000000050017588       0x37 build/kernel/src/kservice.o
 *fill*         0x00000000500175bf        0x1 
 .rodata.rt_system_heap_init_generic.str1.8
                0x00000000500175c0       0x1d build/kernel/src/kservice.o
 *fill*         0x00000000500175dd        0x3 
 .rodata.rt_free.str1.8
                0x00000000500175e0       0x10 build/kernel/src/kservice.o
 .rodata.__FUNCTION__.0
                0x00000000500175f0        0xd build/kernel/src/kservice.o
 *fill*         0x00000000500175fd        0x3 
 .rodata.__FUNCTION__.1
                0x0000000050017600       0x1c build/kernel/src/kservice.o
 *fill*         0x000000005001761c        0x4 
 .rodata.__func__.4
                0x0000000050017620       0x1d build/kernel/src/kservice.o
 *fill*         0x000000005001763d        0x3 
 .rodata.__func__.5
                0x0000000050017640       0x1a build/kernel/src/kservice.o
 *fill*         0x000000005001765a        0x6 
 .rodata.__lowest_bit_bitmap
                0x0000000050017660      0x100 build/kernel/src/kservice.o
                0x0000000050017660                __lowest_bit_bitmap
 .rodata.name   0x0000000050017760       0x2a build/kernel/src/kservice.o
                0x0000000050017760                __fsym_backtrace_desc
                0x0000000050017780                __fsym_backtrace_name
 *fill*         0x000000005001778a        0x6 
 .rodata.plug_holes.str1.8
                0x0000000050017790       0x56 build/kernel/src/mem.o
 *fill*         0x00000000500177e6        0x2 
 .rodata.rt_smem_init.str1.8
                0x00000000500177e8       0x42 build/kernel/src/mem.o
 *fill*         0x000000005001782a        0x6 
 .rodata.rt_smem_detach.str1.8
                0x0000000050017830       0x66 build/kernel/src/mem.o
                                         0x76 (size before relaxing)
 *fill*         0x0000000050017896        0x2 
 .rodata.rt_smem_alloc.str1.8
                0x0000000050017898       0xcf build/kernel/src/mem.o
 *fill*         0x0000000050017967        0x1 
 .rodata.rt_smem_free.str1.8
                0x0000000050017968      0x187 build/kernel/src/mem.o
 *fill*         0x0000000050017aef        0x1 
 .rodata.rt_smem_realloc.str1.8
                0x0000000050017af0       0x6f build/kernel/src/mem.o
 *fill*         0x0000000050017b5f        0x1 
 .rodata.__FUNCTION__.0
                0x0000000050017b60        0xd build/kernel/src/mem.o
 *fill*         0x0000000050017b6d        0x3 
 .rodata.__FUNCTION__.1
                0x0000000050017b70        0xb build/kernel/src/mem.o
 *fill*         0x0000000050017b7b        0x5 
 .rodata.__FUNCTION__.2
                0x0000000050017b80       0x10 build/kernel/src/mem.o
 .rodata.__FUNCTION__.3
                0x0000000050017b90        0xe build/kernel/src/mem.o
 *fill*         0x0000000050017b9e        0x2 
 .rodata.rt_object_init.str1.8
                0x0000000050017ba0       0x27 build/kernel/src/object.o
 *fill*         0x0000000050017bc7        0x1 
 .rodata.rt_object_detach.str1.8
                0x0000000050017bc8       0x12 build/kernel/src/object.o
 .rodata.rt_object_allocate.str1.8
                0x0000000050017bda       0x2a build/kernel/src/object.o
 *fill*         0x0000000050017bda        0x6 
 .rodata.rt_object_delete.str1.8
                0x0000000050017be0       0x29 build/kernel/src/object.o
 *fill*         0x0000000050017c09        0x7 
 .rodata.__FUNCTION__.0
                0x0000000050017c10        0xf build/kernel/src/object.o
 *fill*         0x0000000050017c1f        0x1 
 .rodata.__FUNCTION__.1
                0x0000000050017c20       0x13 build/kernel/src/object.o
 *fill*         0x0000000050017c33        0x5 
 .rodata.__FUNCTION__.2
                0x0000000050017c38       0x13 build/kernel/src/object.o
 *fill*         0x0000000050017c4b        0x5 
 .rodata.__FUNCTION__.3
                0x0000000050017c50       0x1a build/kernel/src/object.o
 *fill*         0x0000000050017c6a        0x6 
 .rodata.__FUNCTION__.4
                0x0000000050017c70       0x11 build/kernel/src/object.o
 *fill*         0x0000000050017c81        0x7 
 .rodata.__FUNCTION__.5
                0x0000000050017c88       0x13 build/kernel/src/object.o
 *fill*         0x0000000050017c9b        0x5 
 .rodata.__FUNCTION__.6
                0x0000000050017ca0       0x11 build/kernel/src/object.o
 *fill*         0x0000000050017cb1        0x7 
 .rodata.__FUNCTION__.7
                0x0000000050017cb8        0xf build/kernel/src/object.o
 *fill*         0x0000000050017cc7        0x1 
 .rodata.rt_sched_thread_change_priority.str1.8
                0x0000000050017cc8       0x22 build/kernel/src/scheduler_comm.o
 *fill*         0x0000000050017cea        0x6 
 .rodata.rt_scheduler_stack_check.str1.8
                0x0000000050017cf0       0x85 build/kernel/src/scheduler_comm.o
                                         0xa5 (size before relaxing)
 *fill*         0x0000000050017d75        0x3 
 .rodata.__FUNCTION__.0
                0x0000000050017d78       0x19 build/kernel/src/scheduler_comm.o
 *fill*         0x0000000050017d91        0x7 
 .rodata.__FUNCTION__.1
                0x0000000050017d98       0x20 build/kernel/src/scheduler_comm.o
 .rodata.rt_sched_thread_init_priv.str1.8
                0x0000000050017db8       0x22 build/kernel/src/scheduler_up.o
 .rodata.rt_sched_insert_thread.str1.8
                0x0000000050017db8       0x12 build/kernel/src/scheduler_up.o
 .rodata.__FUNCTION__.0
                0x0000000050017db8       0x17 build/kernel/src/scheduler_up.o
 *fill*         0x0000000050017dcf        0x1 
 .rodata.__FUNCTION__.1
                0x0000000050017dd0       0x17 build/kernel/src/scheduler_up.o
 *fill*         0x0000000050017de7        0x1 
 .rodata.__FUNCTION__.2
                0x0000000050017de8       0x1a build/kernel/src/scheduler_up.o
 *fill*         0x0000000050017e02        0x6 
 .rodata._thread_timeout.str1.8
                0x0000000050017e08       0x6d build/kernel/src/thread.o
                                         0x85 (size before relaxing)
 *fill*         0x0000000050017e75        0x3 
 .rodata.rt_thread_init.str1.8
                0x0000000050017e78       0x22 build/kernel/src/thread.o
 *fill*         0x0000000050017e9a        0x6 
 .rodata.rt_thread_close.str1.8
                0x0000000050017ea0       0x32 build/kernel/src/thread.o
 *fill*         0x0000000050017ed2        0x6 
 .rodata.rt_thread_detach.str1.8
                0x0000000050017ed8       0x2f build/kernel/src/thread.o
 *fill*         0x0000000050017f07        0x1 
 .rodata.rt_thread_delete.str1.8
                0x0000000050017f08       0x3b build/kernel/src/thread.o
 *fill*         0x0000000050017f43        0x5 
 .rodata.rt_thread_suspend_to_list.str1.8
                0x0000000050017f48       0x1b build/kernel/src/thread.o
                                         0x22 (size before relaxing)
 *fill*         0x0000000050017f63        0x5 
 .rodata.rt_thread_startup.str1.8
                0x0000000050017f68       0x44 build/kernel/src/thread.o
 *fill*         0x0000000050017fac        0x4 
 .rodata.__FUNCTION__.0
                0x0000000050017fb0       0x11 build/kernel/src/thread.o
 *fill*         0x0000000050017fc1        0x7 
 .rodata.__FUNCTION__.1
                0x0000000050017fc8       0x1a build/kernel/src/thread.o
 *fill*         0x0000000050017fe2        0x6 
 .rodata.__FUNCTION__.10
                0x0000000050017fe8       0x12 build/kernel/src/thread.o
 *fill*         0x0000000050017ffa        0x6 
 .rodata.__FUNCTION__.11
                0x0000000050018000       0x10 build/kernel/src/thread.o
 .rodata.__FUNCTION__.12
                0x0000000050018010        0xf build/kernel/src/thread.o
 *fill*         0x000000005001801f        0x1 
 .rodata.__FUNCTION__.2
                0x0000000050018020       0x1a build/kernel/src/thread.o
 *fill*         0x000000005001803a        0x6 
 .rodata.__FUNCTION__.3
                0x0000000050018040       0x12 build/kernel/src/thread.o
 *fill*         0x0000000050018052        0x6 
 .rodata.__FUNCTION__.6
                0x0000000050018058       0x11 build/kernel/src/thread.o
 *fill*         0x0000000050018069        0x7 
 .rodata.__FUNCTION__.7
                0x0000000050018070       0x11 build/kernel/src/thread.o
 *fill*         0x0000000050018081        0x7 
 .rodata.__FUNCTION__.8
                0x0000000050018088       0x11 build/kernel/src/thread.o
 *fill*         0x0000000050018099        0x7 
 .rodata.__FUNCTION__.9
                0x00000000500180a0       0x10 build/kernel/src/thread.o
 .rodata.rt_timer_init.str1.8
                0x00000000500180b0       0x47 build/kernel/src/timer.o
 *fill*         0x00000000500180f7        0x1 
 .rodata.rt_timer_detach.str1.8
                0x00000000500180f8       0x6a build/kernel/src/timer.o
 *fill*         0x0000000050018162        0x6 
 .rodata.rt_timer_start.str1.8
                0x0000000050018168       0x3e build/kernel/src/timer.o
 *fill*         0x00000000500181a6        0x2 
 .rodata.rt_timer_control.str1.8
                0x00000000500181a8       0x26 build/kernel/src/timer.o
 *fill*         0x00000000500181ce        0x2 
 .rodata.rt_timer_control
                0x00000000500181d0       0x28 build/kernel/src/timer.o
 .rodata.rt_timer_check.str1.8
                0x00000000500181f8       0x1c build/kernel/src/timer.o
 .rodata.rt_system_timer_thread_init.str1.8
                0x00000000500181f8        0x7 build/kernel/src/timer.o
                                          0xe (size before relaxing)
 *fill*         0x00000000500181ff        0x1 
 .rodata.__FUNCTION__.0
                0x0000000050018200        0xf build/kernel/src/timer.o
 *fill*         0x000000005001820f        0x1 
 .rodata.__FUNCTION__.1
                0x0000000050018210       0x11 build/kernel/src/timer.o
 *fill*         0x0000000050018221        0x7 
 .rodata.__FUNCTION__.2
                0x0000000050018228        0xe build/kernel/src/timer.o
 *fill*         0x0000000050018236        0x2 
 .rodata.__FUNCTION__.4
                0x0000000050018238        0xf build/kernel/src/timer.o
 *fill*         0x0000000050018247        0x1 
 .rodata.__FUNCTION__.7
                0x0000000050018248       0x10 build/kernel/src/timer.o
 .rodata.__FUNCTION__.8
                0x0000000050018258        0xe build/kernel/src/timer.o
 *fill*         0x0000000050018266        0x2 
 .rodata.str1.8
                0x0000000050018268       0x57 /opt/Xuantie-900-gcc-elf-newlib-x86_64-V2.8.1/bin/../lib/gcc/riscv64-unknown-elf/10.4.0/../../../../riscv64-unknown-elf/lib/rv64imafdc/lp64d/libc.a(lib_a-vfprintf.o)
                                         0x5a (size before relaxing)
 *fill*         0x00000000500182bf        0x1 
 .rodata.cst16  0x00000000500182c0       0x30 /opt/Xuantie-900-gcc-elf-newlib-x86_64-V2.8.1/bin/../lib/gcc/riscv64-unknown-elf/10.4.0/../../../../riscv64-unknown-elf/lib/rv64imafdc/lp64d/libc.a(lib_a-vfprintf.o)
 .rodata.str1.8
                0x00000000500182f0       0x36 /opt/Xuantie-900-gcc-elf-newlib-x86_64-V2.8.1/bin/../lib/gcc/riscv64-unknown-elf/10.4.0/../../../../riscv64-unknown-elf/lib/rv64imafdc/lp64d/libc.a(lib_a-ldtoa.o)
 *fill*         0x0000000050018326        0x2 
 .rodata.str1.8
                0x0000000050018328       0x92 /opt/Xuantie-900-gcc-elf-newlib-x86_64-V2.8.1/bin/../lib/gcc/riscv64-unknown-elf/10.4.0/../../../../riscv64-unknown-elf/lib/rv64imafdc/lp64d/libc.a(lib_a-mprec.o)
 .rodata.str1.8
                0x00000000500183ba       0x5a /opt/Xuantie-900-gcc-elf-newlib-x86_64-V2.8.1/bin/../lib/gcc/riscv64-unknown-elf/10.4.0/../../../../riscv64-unknown-elf/lib/rv64imafdc/lp64d/libc.a(lib_a-svfprintf.o)
 .rodata.cst16  0x00000000500183ba       0x30 /opt/Xuantie-900-gcc-elf-newlib-x86_64-V2.8.1/bin/../lib/gcc/riscv64-unknown-elf/10.4.0/../../../../riscv64-unknown-elf/lib/rv64imafdc/lp64d/libc.a(lib_a-svfprintf.o)
 .rodata.str1.8
                0x00000000500183ba       0x37 /opt/Xuantie-900-gcc-elf-newlib-x86_64-V2.8.1/bin/../lib/gcc/riscv64-unknown-elf/10.4.0/../../../../riscv64-unknown-elf/lib/rv64imafdc/lp64d/libc.a(lib_a-vfiprintf.o)
 *fill*         0x00000000500183ba        0x6 
 .rodata.str1.8
                0x00000000500183c0       0x3f /opt/Xuantie-900-gcc-elf-newlib-x86_64-V2.8.1/bin/../lib/gcc/riscv64-unknown-elf/10.4.0/../../../../riscv64-unknown-elf/lib/rv64imafdc/lp64d/libc.a(lib_a-assert.o)
                                         0x47 (size before relaxing)
 *fill*         0x00000000500183ff        0x1 
 .rodata.str1.8
                0x0000000050018400       0x12 /opt/Xuantie-900-gcc-elf-newlib-x86_64-V2.8.1/bin/../lib/gcc/riscv64-unknown-elf/10.4.0/../../../../riscv64-unknown-elf/lib/rv64imafdc/lp64d/libc.a(lib_a-locale.o)
                                         0x1a (size before relaxing)
 .rodata.str1.8
                0x0000000050018412       0x37 /opt/Xuantie-900-gcc-elf-newlib-x86_64-V2.8.1/bin/../lib/gcc/riscv64-unknown-elf/10.4.0/../../../../riscv64-unknown-elf/lib/rv64imafdc/lp64d/libc.a(lib_a-svfiprintf.o)
 *(.srodata*)
 *fill*         0x0000000050018412        0x6 
 .srodata.__func__.4
                0x0000000050018418        0x8 build/kernel/components/libc/compilers/newlib/syscalls.o
 .srodata.config
                0x0000000050018420        0x8 build/board/board_uart.o
 .srodata.CSWTCH.20
                0x0000000050018428        0x3 build/kernel/src/thread.o
 *fill*         0x000000005001842b        0x5 
 .srodata.cst8  0x0000000050018430       0x10 /opt/Xuantie-900-gcc-elf-newlib-x86_64-V2.8.1/bin/../lib/gcc/riscv64-unknown-elf/10.4.0/../../../../riscv64-unknown-elf/lib/rv64imafdc/lp64d/libc.a(lib_a-strchr.o)
 .srodata.cst8  0x0000000050018440        0x8 /opt/Xuantie-900-gcc-elf-newlib-x86_64-V2.8.1/bin/../lib/gcc/riscv64-unknown-elf/10.4.0/../../../../riscv64-unknown-elf/lib/rv64imafdc/lp64d/libc.a(lib_a-strcmp.o)
 .srodata.cst8  0x0000000050018448        0x8 /opt/Xuantie-900-gcc-elf-newlib-x86_64-V2.8.1/bin/../lib/gcc/riscv64-unknown-elf/10.4.0/../../../../riscv64-unknown-elf/lib/rv64imafdc/lp64d/libc.a(lib_a-strcpy.o)
 .srodata.cst8  0x0000000050018448        0x8 /opt/Xuantie-900-gcc-elf-newlib-x86_64-V2.8.1/bin/../lib/gcc/riscv64-unknown-elf/10.4.0/../../../../riscv64-unknown-elf/lib/rv64imafdc/lp64d/libc.a(lib_a-strlen.o)
 .srodata.cst8  0x0000000050018448       0x10 /opt/Xuantie-900-gcc-elf-newlib-x86_64-V2.8.1/bin/../lib/gcc/riscv64-unknown-elf/10.4.0/../../../../riscv64-unknown-elf/lib/rv64imafdc/lp64d/libc.a(lib_a-strncmp.o)
 .srodata.cst8  0x0000000050018448       0x10 /opt/Xuantie-900-gcc-elf-newlib-x86_64-V2.8.1/bin/../lib/gcc/riscv64-unknown-elf/10.4.0/../../../../riscv64-unknown-elf/lib/rv64imafdc/lp64d/libc.a(lib_a-strncpy.o)
 .srodata.cst8  0x0000000050018448        0x8 /opt/Xuantie-900-gcc-elf-newlib-x86_64-V2.8.1/bin/../lib/gcc/riscv64-unknown-elf/10.4.0/../../../../riscv64-unknown-elf/lib/rv64imafdc/lp64d/libc.a(lib_a-strtoul.o)
 .srodata       0x0000000050018450        0x8 /opt/Xuantie-900-gcc-elf-newlib-x86_64-V2.8.1/bin/../lib/gcc/riscv64-unknown-elf/10.4.0/../../../../riscv64-unknown-elf/lib/rv64imafdc/lp64d/libc.a(lib_a-impure.o)
                0x0000000050018450                _global_impure_ptr
 .srodata.cst8  0x0000000050018458       0x10 /opt/Xuantie-900-gcc-elf-newlib-x86_64-V2.8.1/bin/../lib/gcc/riscv64-unknown-elf/10.4.0/../../../../riscv64-unknown-elf/lib/rv64imafdc/lp64d/libc.a(lib_a-memchr.o)
 .srodata.cst8  0x0000000050018458       0x10 /opt/Xuantie-900-gcc-elf-newlib-x86_64-V2.8.1/bin/../lib/gcc/riscv64-unknown-elf/10.4.0/../../../../riscv64-unknown-elf/lib/rv64imafdc/lp64d/libc.a(lib_a-mprec.o)
 .srodata.cst8  0x0000000050018468        0x8 /opt/Xuantie-900-gcc-elf-newlib-x86_64-V2.8.1/bin/../lib/gcc/riscv64-unknown-elf/10.4.0/../../../../riscv64-unknown-elf/lib/rv64imafdc/lp64d/libc.a(lib_a-s_frexp.o)
 *(.gnu.linkonce.r.*)
                0x0000000050018470                __rodata_end = .

.rela.dyn       0x0000000050018470        0x0
 .rela.text     0x0000000050018470        0x0 build/kernel/components/libc/compilers/common/cstdlib.o
 .rela.text.section_bss_clear
                0x0000000050018470        0x0 build/kernel/components/libc/compilers/common/cstdlib.o
 .rela.text.rt_hw_board_init
                0x0000000050018470        0x0 build/kernel/components/libc/compilers/common/cstdlib.o
 .rela.text.uart_getc
                0x0000000050018470        0x0 build/kernel/components/libc/compilers/common/cstdlib.o
 .rela.text.uart_putc
                0x0000000050018470        0x0 build/kernel/components/libc/compilers/common/cstdlib.o
 .rela.text.rt_hw_uart_init
                0x0000000050018470        0x0 build/kernel/components/libc/compilers/common/cstdlib.o
 .rela.text.finsh_system_init
                0x0000000050018470        0x0 build/kernel/components/libc/compilers/common/cstdlib.o

.rodata1        0x0000000050018470       0x10
                0x0000000050018480                . = ALIGN (0x40)
 *fill*         0x0000000050018470       0x10 
                0x0000000050018480                __rodata1_start = .
 *(.rodata1)
 *(.rodata1.*)
                0x0000000050018480                __rodata1_end = .

.data           0x0000000050018480      0xc24
                0x0000000050018480                . = ALIGN (0x4)
                0x0000000050018480                __sdata = .
                0x0000000050018480                __data_start__ = .
                0x0000000050018480                data_start = .
 *(.got.plt)
 *(.got)
 *(.gnu.linkonce.r*)
 *(.data)
 .data          0x0000000050018480      0x760 /opt/Xuantie-900-gcc-elf-newlib-x86_64-V2.8.1/bin/../lib/gcc/riscv64-unknown-elf/10.4.0/../../../../riscv64-unknown-elf/lib/rv64imafdc/lp64d/libc.a(lib_a-impure.o)
 .data          0x0000000050018be0      0x1a8 /opt/Xuantie-900-gcc-elf-newlib-x86_64-V2.8.1/bin/../lib/gcc/riscv64-unknown-elf/10.4.0/../../../../riscv64-unknown-elf/lib/rv64imafdc/lp64d/libc.a(lib_a-locale.o)
                0x0000000050018be0                __global_locale
 *(.data*)
 .data.cmd_list_msh_options
                0x0000000050018d88       0xf0 build/kernel/components/finsh/cmd.o
 .data._rt_thread_defunct
                0x0000000050018e78       0x10 build/kernel/src/idle.o
 .data._object_container
                0x0000000050018e88      0x210 build/kernel/src/object.o
 *(.data1)
 *(.data.*)
 *(.gnu.linkonce.d*)
 *(.data1)
 *(.gcc_except_table)
 *(.gcc_except_table*)
                0x0000000050019098                __start_init_call = .
 *(.initcall.init)
                0x0000000050019098                __stop_init_call = .
                0x0000000050019098                __start_cmd = .
 *(.bootloaddata.cmd)
                0x0000000050019098                . = ALIGN (0x4)
                0x0000000050019098                __stop_cmd = .
                0x0000000050019098                __global_pointer$ = .
 *(.sdata)
 .sdata         0x0000000050019098        0x8 /opt/Xuantie-900-gcc-elf-newlib-x86_64-V2.8.1/bin/../lib/gcc/riscv64-unknown-elf/10.4.0/../../../../riscv64-unknown-elf/lib/rv64imafdc/lp64d/libc.a(lib_a-impure.o)
                0x0000000050019098                _impure_ptr
 *(.sdata.*)
 .sdata.g_system_clock
                0x00000000500190a0        0x4 build/board/sys_clk.o
                0x00000000500190a0                g_system_clock
 *(.sdata2.*)
 *(.gnu.linkonce.s.*)
 *(__libc_atexit)
 *(__libc_subinit)
 *(__libc_subfreeres)
 *(.note.ABI-tag)
                0x00000000500190a4                __edata = .
                0x00000000500190a4                __data_end__ = .
                0x00000000500190a4                . = ALIGN (0x4)

.data1          0x00000000500190a4       0x1c
                0x00000000500190c0                . = ALIGN (0x40)
 *fill*         0x00000000500190a4       0x1c 
                0x00000000500190c0                __data1_start = .
 *(.data1)
 *(.data1.*)
                0x00000000500190c0                __data1_end = .

.got
 *(.got)

.got1
 *(.got1)

.got2
 *(.got2)

.ctors          0x00000000500190c0        0x0
                0x00000000500190c0                . = ALIGN (0x40)
                0x00000000500190c0                __CTOR_LIST__ = .
                0x00000000500190c0                ___CTORS_LIST___ = .
 *crtbegin.o(.ctors)
 *(EXCLUDE_FILE(*crtend.o) .ctors)
 *(SORT_BY_NAME(.ctors.*))
 *(.ctors)
                0x00000000500190c0                __CTOR_END__ = .
                0x00000000500190c0                ___CTORS_END___ = .

.dtors          0x00000000500190c0        0x0
                0x00000000500190c0                . = ALIGN (0x40)
                0x00000000500190c0                __DTOR_LIST__ = .
                0x00000000500190c0                ___DTORS_LIST___ = .
 *crtbegin.o(.dtors)
 *(EXCLUDE_FILE(*crtend.o) .dtors)
 *(SORT_BY_NAME(.dtors.*))
 *(.dtors)
                0x00000000500190c0                __DTOR_END__ = .
                0x00000000500190c0                ___DTORS_END___ = .

.fixup          0x00000000500190c0        0x0
                0x00000000500190c0                __fixup_start = .
 *(.fixup)
                0x00000000500190c0                __fixup_end = .

.eh_frame
 *(.eh_frame)

.eh_framehdr    0x00000000500190c0        0x0
                0x00000000500190c0                __eh_framehdr_start = .
 *(.eh_framehdr)
                0x00000000500190c0                __eh_framehdr_end = .

.gcc_except_table
 *(.gcc_except_table)

.bss            0x00000000500190c0     0x2058
                0x00000000500190c0                . = ALIGN (0x4)
                0x00000000500190c0                __sbss = ALIGN (0x4)
                0x00000000500190c0                __bss_start__ = .
 *(.dynsbss)
 *(.sbss)
 .sbss          0x00000000500190c0       0x41 /opt/Xuantie-900-gcc-elf-newlib-x86_64-V2.8.1/bin/../lib/gcc/riscv64-unknown-elf/10.4.0/../../../../riscv64-unknown-elf/lib/rv64imafdc/lp64d/libc.a(lib_a-lock.o)
                0x00000000500190c0                __lock___arc4random_mutex
                0x00000000500190c8                __lock___dd_hash_mutex
                0x00000000500190d0                __lock___tz_mutex
                0x00000000500190d8                __lock___env_recursive_mutex
                0x00000000500190e0                __lock___malloc_recursive_mutex
                0x00000000500190e8                __lock___at_quick_exit_mutex
                0x00000000500190f0                __lock___atexit_recursive_mutex
                0x00000000500190f8                __lock___sfp_recursive_mutex
                0x0000000050019100                __lock___sinit_recursive_mutex
 *(.sbss.*)
 *fill*         0x0000000050019101        0x7 
 .sbss.rt_interrupt_from_thread
                0x0000000050019108        0x8 build/kernel/libcpu/risc-v/common/cpuport.o
                0x0000000050019108                rt_interrupt_from_thread
 .sbss.rt_interrupt_to_thread
                0x0000000050019110        0x8 build/kernel/libcpu/risc-v/common/cpuport.o
                0x0000000050019110                rt_interrupt_to_thread
 .sbss.rt_thread_switch_interrupt_flag
                0x0000000050019118        0x4 build/kernel/libcpu/risc-v/common/cpuport.o
                0x0000000050019118                rt_thread_switch_interrupt_flag
 .sbss.g_irq_nested_level
                0x000000005001911c        0x4 build/board/irq.o
                0x000000005001911c                g_irq_nested_level
 .sbss.csi_tick
                0x0000000050019120        0x4 build/board/tick.o
 *fill*         0x0000000050019124        0x4 
 .sbss.timer_init_value
                0x0000000050019128        0x8 build/board/tick.o
 .sbss.trap_c_callback
                0x0000000050019130        0x8 build/board/trap_c.o
                0x0000000050019130                trap_c_callback
 .sbss._cputime_ops
                0x0000000050019138        0x8 build/kernel/components/drivers/cputime/cputime.o
 .sbss._finsh_thread_entry_hook
                0x0000000050019140        0x8 build/kernel/components/finsh/shell.o
 .sbss._syscall_table_begin
                0x0000000050019148        0x8 build/kernel/components/finsh/shell.o
                0x0000000050019148                _syscall_table_begin
 .sbss._syscall_table_end
                0x0000000050019150        0x8 build/kernel/components/finsh/shell.o
                0x0000000050019150                _syscall_table_end
 .sbss.finsh_prompt_custom
                0x0000000050019158        0x8 build/kernel/components/finsh/shell.o
 .sbss.shell    0x0000000050019160        0x8 build/kernel/components/finsh/shell.o
                0x0000000050019160                shell
 .sbss.rt_tick  0x0000000050019168        0x8 build/kernel/src/clock.o
 .sbss.rt_tick_hook
                0x0000000050019170        0x8 build/kernel/src/clock.o
 .sbss.rt_interrupt_enter_hook
                0x0000000050019178        0x8 build/kernel/src/irq.o
 .sbss.rt_interrupt_leave_hook
                0x0000000050019180        0x8 build/kernel/src/irq.o
 .sbss.rt_interrupt_nest
                0x0000000050019188        0x8 build/kernel/src/irq.o
                0x0000000050019188                rt_interrupt_nest
 .sbss.__rt_errno
                0x0000000050019190        0x4 build/kernel/src/klibc/kstdio.o
 *fill*         0x0000000050019194        0x4 
 .sbss._console_device
                0x0000000050019198        0x8 build/kernel/src/kservice.o
 .sbss.rt_assert_hook
                0x00000000500191a0        0x8 build/kernel/src/kservice.o
                0x00000000500191a0                rt_assert_hook
 .sbss.rt_free_hook
                0x00000000500191a8        0x8 build/kernel/src/kservice.o
 .sbss.rt_malloc_hook
                0x00000000500191b0        0x8 build/kernel/src/kservice.o
 .sbss.rt_realloc_entry_hook
                0x00000000500191b8        0x8 build/kernel/src/kservice.o
 .sbss.rt_realloc_exit_hook
                0x00000000500191c0        0x8 build/kernel/src/kservice.o
 .sbss.system_heap
                0x00000000500191c8        0x8 build/kernel/src/kservice.o
 .sbss.rt_object_attach_hook
                0x00000000500191d0        0x8 build/kernel/src/object.o
 .sbss.rt_object_detach_hook
                0x00000000500191d8        0x8 build/kernel/src/object.o
 .sbss.rt_object_put_hook
                0x00000000500191e0        0x8 build/kernel/src/object.o
                0x00000000500191e0                rt_object_put_hook
 .sbss.rt_object_take_hook
                0x00000000500191e8        0x8 build/kernel/src/object.o
                0x00000000500191e8                rt_object_take_hook
 .sbss.rt_object_trytake_hook
                0x00000000500191f0        0x8 build/kernel/src/object.o
                0x00000000500191f0                rt_object_trytake_hook
 .sbss.rt_current_priority
                0x00000000500191f8        0x1 build/kernel/src/scheduler_up.o
                0x00000000500191f8                rt_current_priority
 *fill*         0x00000000500191f9        0x7 
 .sbss.rt_scheduler_hook
                0x0000000050019200        0x8 build/kernel/src/scheduler_up.o
 .sbss.rt_scheduler_lock_nest
                0x0000000050019208        0x2 build/kernel/src/scheduler_up.o
 *fill*         0x000000005001920a        0x6 
 .sbss.rt_scheduler_switch_hook
                0x0000000050019210        0x8 build/kernel/src/scheduler_up.o
 .sbss.rt_thread_ready_priority_group
                0x0000000050019218        0x4 build/kernel/src/scheduler_up.o
                0x0000000050019218                rt_thread_ready_priority_group
 *fill*         0x000000005001921c        0x4 
 .sbss.rt_thread_resume_hook
                0x0000000050019220        0x8 build/kernel/src/thread.o
 .sbss.rt_thread_suspend_hook
                0x0000000050019228        0x8 build/kernel/src/thread.o
 .sbss.random_nr.3
                0x0000000050019230        0x4 build/kernel/src/timer.o
 *fill*         0x0000000050019234        0x4 
 .sbss.rt_timer_enter_hook
                0x0000000050019238        0x8 build/kernel/src/timer.o
 .sbss.rt_timer_exit_hook
                0x0000000050019240        0x8 build/kernel/src/timer.o
 *(.scommon)
 *(.dynbss)
 *(.bss)
 *(.bss.*)
 .bss.g_console_handle
                0x0000000050019248       0x88 build/board/board_uart.o
                0x0000000050019248                g_console_handle
 .bss.serial    0x00000000500192d0       0xd8 build/board/board_uart.o
 .bss.isr_table
                0x00000000500193a8      0x500 build/board/interrupt.o
                0x00000000500193a8                isr_table
 .bss.g_irq_table
                0x00000000500198a8      0x200 build/board/irq.o
                0x00000000500198a8                g_irq_table
 .bss._completion_lock
                0x0000000050019aa8       0x10 build/kernel/components/drivers/ipc/completion_up.o
 .bss._hw_pin   0x0000000050019ab8       0xa0 build/kernel/components/drivers/pin/pin.o
 .bss.finsh_prompt.8
                0x0000000050019b58      0x201 build/kernel/components/finsh/shell.o
 *fill*         0x0000000050019d59        0x7 
 .bss._cpu      0x0000000050019d60       0x10 build/kernel/src/cpu_up.o
 .bss._defunct_spinlock
                0x0000000050019d70       0x10 build/kernel/src/idle.o
 .bss.idle_hook_list
                0x0000000050019d80       0x20 build/kernel/src/idle.o
 .bss.idle_thread
                0x0000000050019da0      0x130 build/kernel/src/idle.o
 .bss.idle_thread_stack
                0x0000000050019ed0      0x400 build/kernel/src/idle.o
 .bss._lock     0x000000005001a2d0       0x78 build/kernel/src/kservice.o
 .bss.rt_log_buf.3
                0x000000005001a348      0x200 build/kernel/src/kservice.o
 .bss.rt_thread_priority_table
                0x000000005001a548      0x200 build/kernel/src/scheduler_up.o
                0x000000005001a548                rt_thread_priority_table
 .bss._htimer_lock
                0x000000005001a748       0x10 build/kernel/src/timer.o
 .bss._soft_timer_list
                0x000000005001a758       0x10 build/kernel/src/timer.o
 .bss._soft_timer_sem
                0x000000005001a768       0x60 build/kernel/src/timer.o
 .bss._stimer_lock
                0x000000005001a7c8       0x10 build/kernel/src/timer.o
 .bss._timer_list
                0x000000005001a7d8       0x10 build/kernel/src/timer.o
 .bss._timer_thread
                0x000000005001a7e8      0x130 build/kernel/src/timer.o
 .bss._timer_thread_stack
                0x000000005001a918      0x800 build/kernel/src/timer.o
 *(COMMON)
                0x000000005001b118                . = ALIGN (0x4)
                0x000000005001b118                __ebss = .
                0x000000005001b118                __bss_end__ = .
                0x000000005001b118                __end = .
                0x000000005001b118                end = .
                0x0000000050018480                _data_lma = LOADADDR (.data)

.stack          0x000000005001b118     0x1028
                0x000000005001b140                . = ALIGN (0x40)
 *fill*         0x000000005001b118       0x28 
                0x000000005001b140                _stack_end_end = .
                0x000000005001c140                . = (. + _STACK_SIZE)
 *fill*         0x000000005001b140     0x1000 
                0x000000005001c140                _stack_top = .
                0x000000005001c140                __rt_rvstack = .

._user_heap     0x000000005001c140     0x2200
                0x000000005001c140                . = ALIGN (0x4)
 *(.stack*)
 .stack         0x000000005001c140     0x1000 build/board/startup.o
                0x000000005001c140                g_base_irqstack
                0x000000005001d140                g_top_irqstack
 .stack         0x000000005001d140     0x1000 build/board/vectors.o
                0x000000005001d140                g_trapstackbase
                0x000000005001e140                g_top_trapstack
                0x000000005001e140                . = ALIGN (0x4)
                0x000000005001e140                __heap_start = .
                0x000000005001e340                . = (. + __min_heap_size)
 *fill*         0x000000005001e140      0x200 
                0x000000005001e340                . = ALIGN (0x4)
                0x0000000050100000                HeapLimit = (ORIGIN (DRAM) + LENGTH (DRAM))
                0x000000005001e340                _end = .
OUTPUT(rtthread.elf elf64-littleriscv)

.debug_info     0x0000000000000000    0x318d5
 .debug_info    0x0000000000000000      0x844 build/kernel/components/libc/compilers/common/cstdlib.o
 .debug_info    0x0000000000000844     0x1d02 build/kernel/components/libc/compilers/newlib/syscalls.o
 .debug_info    0x0000000000002546       0x2e build/kernel/libcpu/risc-v/common/context_gcc.o
 .debug_info    0x0000000000002574      0x8e0 build/kernel/libcpu/risc-v/common/cpuport.o
 .debug_info    0x0000000000002e54       0xc9 build/applications/main.o
 .debug_info    0x0000000000002f1d      0x1de build/board/board.o
 .debug_info    0x00000000000030fb      0xeff build/board/board_uart.o
 .debug_info    0x0000000000003ffa      0x926 build/board/devices.o
 .debug_info    0x0000000000004920      0x5f1 build/board/dw_uart_ll.o
 .debug_info    0x0000000000004f11      0x3e7 build/board/interrupt.o
 .debug_info    0x00000000000052f8      0x3bf build/board/irq.o
 .debug_info    0x00000000000056b7      0x718 build/board/irq_port.o
 .debug_info    0x0000000000005dcf       0x22 build/board/startup.o
 .debug_info    0x0000000000005df1      0x350 build/board/sys_clk.o
 .debug_info    0x0000000000006141      0xb19 build/board/system.o
 .debug_info    0x0000000000006c5a      0xbc6 build/board/target_get.o
 .debug_info    0x0000000000007820      0xad4 build/board/tick.o
 .debug_info    0x00000000000082f4      0x286 build/board/trap_c.o
 .debug_info    0x000000000000857a     0x23c7 build/board/uart.o
 .debug_info    0x000000000000a941       0x2e build/board/vectors.o
 .debug_info    0x000000000000a96f     0x1303 build/kernel/components/drivers/core/device.o
 .debug_info    0x000000000000bc72      0x3ee build/kernel/components/drivers/cputime/cputime.o
 .debug_info    0x000000000000c060      0x203 build/kernel/components/drivers/cputime/cputime_riscv.o
 .debug_info    0x000000000000c263      0x216 build/kernel/components/drivers/ipc/completion_comm.o
 .debug_info    0x000000000000c479      0xa80 build/kernel/components/drivers/ipc/completion_up.o
 .debug_info    0x000000000000cef9     0x152d build/kernel/components/drivers/ipc/dataqueue.o
 .debug_info    0x000000000000e426     0x1ab2 build/kernel/components/drivers/pin/pin.o
 .debug_info    0x000000000000fed8     0x263d build/kernel/components/drivers/serial/serial.o
 .debug_info    0x0000000000012515     0x2feb build/kernel/components/finsh/cmd.o
 .debug_info    0x0000000000015500     0x1068 build/kernel/components/finsh/msh.o
 .debug_info    0x0000000000016568      0x19e build/kernel/components/finsh/msh_parse.o
 .debug_info    0x0000000000016706     0x1997 build/kernel/components/finsh/shell.o
 .debug_info    0x000000000001809d      0x628 build/kernel/src/clock.o
 .debug_info    0x00000000000186c5      0x85c build/kernel/src/components.o
 .debug_info    0x0000000000018f21      0x63e build/kernel/src/cpu_up.o
 .debug_info    0x000000000001955f      0xb2a build/kernel/src/idle.o
 .debug_info    0x000000000001a089     0x920c build/kernel/src/ipc.o
 .debug_info    0x0000000000023295      0x40a build/kernel/src/irq.o
 .debug_info    0x000000000002369f      0xc5d build/kernel/src/klibc/kstdio.o
 .debug_info    0x00000000000242fc      0x7c9 build/kernel/src/klibc/kstring.o
 .debug_info    0x0000000000024ac5     0x2562 build/kernel/src/kservice.o
 .debug_info    0x0000000000027027      0xe26 build/kernel/src/mem.o
 .debug_info    0x0000000000027e4d     0x1575 build/kernel/src/object.o
 .debug_info    0x00000000000293c2      0xafe build/kernel/src/scheduler_comm.o
 .debug_info    0x0000000000029ec0      0xf4a build/kernel/src/scheduler_up.o
 .debug_info    0x000000000002ae0a     0x26de build/kernel/src/thread.o
 .debug_info    0x000000000002d4e8     0x1f42 build/kernel/src/timer.o
 .debug_info    0x000000000002f42a      0x2bb /opt/Xuantie-900-gcc-elf-newlib-x86_64-V2.8.1/bin/../lib/gcc/riscv64-unknown-elf/10.4.0/rv64imafdc/lp64d/libgcc.a(eqtf2.o)
 .debug_info    0x000000000002f6e5      0x29d /opt/Xuantie-900-gcc-elf-newlib-x86_64-V2.8.1/bin/../lib/gcc/riscv64-unknown-elf/10.4.0/rv64imafdc/lp64d/libgcc.a(getf2.o)
 .debug_info    0x000000000002f982      0x29d /opt/Xuantie-900-gcc-elf-newlib-x86_64-V2.8.1/bin/../lib/gcc/riscv64-unknown-elf/10.4.0/rv64imafdc/lp64d/libgcc.a(letf2.o)
 .debug_info    0x000000000002fc1f      0x8d9 /opt/Xuantie-900-gcc-elf-newlib-x86_64-V2.8.1/bin/../lib/gcc/riscv64-unknown-elf/10.4.0/rv64imafdc/lp64d/libgcc.a(multf3.o)
 .debug_info    0x00000000000304f8      0x65f /opt/Xuantie-900-gcc-elf-newlib-x86_64-V2.8.1/bin/../lib/gcc/riscv64-unknown-elf/10.4.0/rv64imafdc/lp64d/libgcc.a(subtf3.o)
 .debug_info    0x0000000000030b57      0x239 /opt/Xuantie-900-gcc-elf-newlib-x86_64-V2.8.1/bin/../lib/gcc/riscv64-unknown-elf/10.4.0/rv64imafdc/lp64d/libgcc.a(fixtfsi.o)
 .debug_info    0x0000000000030d90      0x2ee /opt/Xuantie-900-gcc-elf-newlib-x86_64-V2.8.1/bin/../lib/gcc/riscv64-unknown-elf/10.4.0/rv64imafdc/lp64d/libgcc.a(floatsitf.o)
 .debug_info    0x000000000003107e      0x2e5 /opt/Xuantie-900-gcc-elf-newlib-x86_64-V2.8.1/bin/../lib/gcc/riscv64-unknown-elf/10.4.0/rv64imafdc/lp64d/libgcc.a(extenddftf2.o)
 .debug_info    0x0000000000031363      0x30b /opt/Xuantie-900-gcc-elf-newlib-x86_64-V2.8.1/bin/../lib/gcc/riscv64-unknown-elf/10.4.0/rv64imafdc/lp64d/libgcc.a(trunctfdf2.o)
 .debug_info    0x000000000003166e      0x170 /opt/Xuantie-900-gcc-elf-newlib-x86_64-V2.8.1/bin/../lib/gcc/riscv64-unknown-elf/10.4.0/rv64imafdc/lp64d/libgcc.a(_clzsi2.o)
 .debug_info    0x00000000000317de       0xf7 /opt/Xuantie-900-gcc-elf-newlib-x86_64-V2.8.1/bin/../lib/gcc/riscv64-unknown-elf/10.4.0/rv64imafdc/lp64d/libgcc.a(_clz.o)

.debug_abbrev   0x0000000000000000     0x8589
 .debug_abbrev  0x0000000000000000      0x298 build/kernel/components/libc/compilers/common/cstdlib.o
 .debug_abbrev  0x0000000000000298      0x361 build/kernel/components/libc/compilers/newlib/syscalls.o
 .debug_abbrev  0x00000000000005f9       0x14 build/kernel/libcpu/risc-v/common/context_gcc.o
 .debug_abbrev  0x000000000000060d      0x20c build/kernel/libcpu/risc-v/common/cpuport.o
 .debug_abbrev  0x0000000000000819       0x72 build/applications/main.o
 .debug_abbrev  0x000000000000088b       0xb1 build/board/board.o
 .debug_abbrev  0x000000000000093c      0x25c build/board/board_uart.o
 .debug_abbrev  0x0000000000000b98       0xe7 build/board/devices.o
 .debug_abbrev  0x0000000000000c7f      0x22e build/board/dw_uart_ll.o
 .debug_abbrev  0x0000000000000ead      0x220 build/board/interrupt.o
 .debug_abbrev  0x00000000000010cd      0x1a0 build/board/irq.o
 .debug_abbrev  0x000000000000126d      0x1e0 build/board/irq_port.o
 .debug_abbrev  0x000000000000144d       0x12 build/board/startup.o
 .debug_abbrev  0x000000000000145f      0x1dc build/board/sys_clk.o
 .debug_abbrev  0x000000000000163b      0x2d1 build/board/system.o
 .debug_abbrev  0x000000000000190c      0x1ca build/board/target_get.o
 .debug_abbrev  0x0000000000001ad6      0x373 build/board/tick.o
 .debug_abbrev  0x0000000000001e49      0x139 build/board/trap_c.o
 .debug_abbrev  0x0000000000001f82      0x4d8 build/board/uart.o
 .debug_abbrev  0x000000000000245a       0x14 build/board/vectors.o
 .debug_abbrev  0x000000000000246e      0x28a build/kernel/components/drivers/core/device.o
 .debug_abbrev  0x00000000000026f8      0x1f7 build/kernel/components/drivers/cputime/cputime.o
 .debug_abbrev  0x00000000000028ef      0x12f build/kernel/components/drivers/cputime/cputime_riscv.o
 .debug_abbrev  0x0000000000002a1e       0xf8 build/kernel/components/drivers/ipc/completion_comm.o
 .debug_abbrev  0x0000000000002b16      0x1f6 build/kernel/components/drivers/ipc/completion_up.o
 .debug_abbrev  0x0000000000002d0c      0x363 build/kernel/components/drivers/ipc/dataqueue.o
 .debug_abbrev  0x000000000000306f      0x3c7 build/kernel/components/drivers/pin/pin.o
 .debug_abbrev  0x0000000000003436      0x3d6 build/kernel/components/drivers/serial/serial.o
 .debug_abbrev  0x000000000000380c      0x40d build/kernel/components/finsh/cmd.o
 .debug_abbrev  0x0000000000003c19      0x3c8 build/kernel/components/finsh/msh.o
 .debug_abbrev  0x0000000000003fe1       0xde build/kernel/components/finsh/msh_parse.o
 .debug_abbrev  0x00000000000040bf      0x4ff build/kernel/components/finsh/shell.o
 .debug_abbrev  0x00000000000045be      0x253 build/kernel/src/clock.o
 .debug_abbrev  0x0000000000004811      0x314 build/kernel/src/components.o
 .debug_abbrev  0x0000000000004b25      0x206 build/kernel/src/cpu_up.o
 .debug_abbrev  0x0000000000004d2b      0x391 build/kernel/src/idle.o
 .debug_abbrev  0x00000000000050bc      0x4f0 build/kernel/src/ipc.o
 .debug_abbrev  0x00000000000055ac      0x200 build/kernel/src/irq.o
 .debug_abbrev  0x00000000000057ac      0x398 build/kernel/src/klibc/kstdio.o
 .debug_abbrev  0x0000000000005b44      0x2b4 build/kernel/src/klibc/kstring.o
 .debug_abbrev  0x0000000000005df8      0x4f0 build/kernel/src/kservice.o
 .debug_abbrev  0x00000000000062e8      0x253 build/kernel/src/mem.o
 .debug_abbrev  0x000000000000653b      0x360 build/kernel/src/object.o
 .debug_abbrev  0x000000000000689b      0x2cf build/kernel/src/scheduler_comm.o
 .debug_abbrev  0x0000000000006b6a      0x3cb build/kernel/src/scheduler_up.o
 .debug_abbrev  0x0000000000006f35      0x460 build/kernel/src/thread.o
 .debug_abbrev  0x0000000000007395      0x3f0 build/kernel/src/timer.o
 .debug_abbrev  0x0000000000007785      0x158 /opt/Xuantie-900-gcc-elf-newlib-x86_64-V2.8.1/bin/../lib/gcc/riscv64-unknown-elf/10.4.0/rv64imafdc/lp64d/libgcc.a(eqtf2.o)
 .debug_abbrev  0x00000000000078dd      0x16f /opt/Xuantie-900-gcc-elf-newlib-x86_64-V2.8.1/bin/../lib/gcc/riscv64-unknown-elf/10.4.0/rv64imafdc/lp64d/libgcc.a(getf2.o)
 .debug_abbrev  0x0000000000007a4c      0x16f /opt/Xuantie-900-gcc-elf-newlib-x86_64-V2.8.1/bin/../lib/gcc/riscv64-unknown-elf/10.4.0/rv64imafdc/lp64d/libgcc.a(letf2.o)
 .debug_abbrev  0x0000000000007bbb      0x19f /opt/Xuantie-900-gcc-elf-newlib-x86_64-V2.8.1/bin/../lib/gcc/riscv64-unknown-elf/10.4.0/rv64imafdc/lp64d/libgcc.a(multf3.o)
 .debug_abbrev  0x0000000000007d5a      0x177 /opt/Xuantie-900-gcc-elf-newlib-x86_64-V2.8.1/bin/../lib/gcc/riscv64-unknown-elf/10.4.0/rv64imafdc/lp64d/libgcc.a(subtf3.o)
 .debug_abbrev  0x0000000000007ed1      0x157 /opt/Xuantie-900-gcc-elf-newlib-x86_64-V2.8.1/bin/../lib/gcc/riscv64-unknown-elf/10.4.0/rv64imafdc/lp64d/libgcc.a(fixtfsi.o)
 .debug_abbrev  0x0000000000008028      0x17e /opt/Xuantie-900-gcc-elf-newlib-x86_64-V2.8.1/bin/../lib/gcc/riscv64-unknown-elf/10.4.0/rv64imafdc/lp64d/libgcc.a(floatsitf.o)
 .debug_abbrev  0x00000000000081a6      0x15a /opt/Xuantie-900-gcc-elf-newlib-x86_64-V2.8.1/bin/../lib/gcc/riscv64-unknown-elf/10.4.0/rv64imafdc/lp64d/libgcc.a(extenddftf2.o)
 .debug_abbrev  0x0000000000008300      0x14f /opt/Xuantie-900-gcc-elf-newlib-x86_64-V2.8.1/bin/../lib/gcc/riscv64-unknown-elf/10.4.0/rv64imafdc/lp64d/libgcc.a(trunctfdf2.o)
 .debug_abbrev  0x000000000000844f       0xca /opt/Xuantie-900-gcc-elf-newlib-x86_64-V2.8.1/bin/../lib/gcc/riscv64-unknown-elf/10.4.0/rv64imafdc/lp64d/libgcc.a(_clzsi2.o)
 .debug_abbrev  0x0000000000008519       0x70 /opt/Xuantie-900-gcc-elf-newlib-x86_64-V2.8.1/bin/../lib/gcc/riscv64-unknown-elf/10.4.0/rv64imafdc/lp64d/libgcc.a(_clz.o)

.debug_loc      0x0000000000000000    0x2c47b
 .debug_loc     0x0000000000000000      0x7fd build/kernel/components/libc/compilers/common/cstdlib.o
 .debug_loc     0x00000000000007fd      0xdcb build/kernel/components/libc/compilers/newlib/syscalls.o
 .debug_loc     0x00000000000015c8      0x21d build/kernel/libcpu/risc-v/common/cpuport.o
 .debug_loc     0x00000000000017e5      0x16b build/board/board_uart.o
 .debug_loc     0x0000000000001950      0x5dc build/board/dw_uart_ll.o
 .debug_loc     0x0000000000001f2c      0x206 build/board/interrupt.o
 .debug_loc     0x0000000000002132       0xf4 build/board/irq.o
 .debug_loc     0x0000000000002226      0x23e build/board/irq_port.o
 .debug_loc     0x0000000000002464       0x72 build/board/sys_clk.o
 .debug_loc     0x00000000000024d6      0x430 build/board/system.o
 .debug_loc     0x0000000000002906      0x8a2 build/board/target_get.o
 .debug_loc     0x00000000000031a8      0x3b8 build/board/tick.o
 .debug_loc     0x0000000000003560      0x10a build/board/trap_c.o
 .debug_loc     0x000000000000366a     0x2c93 build/board/uart.o
 .debug_loc     0x00000000000062fd     0x105e build/kernel/components/drivers/core/device.o
 .debug_loc     0x000000000000735b      0x2c6 build/kernel/components/drivers/cputime/cputime.o
 .debug_loc     0x0000000000007621       0xe4 build/kernel/components/drivers/ipc/completion_comm.o
 .debug_loc     0x0000000000007705      0x4db build/kernel/components/drivers/ipc/completion_up.o
 .debug_loc     0x0000000000007be0      0xd14 build/kernel/components/drivers/ipc/dataqueue.o
 .debug_loc     0x00000000000088f4     0x1823 build/kernel/components/drivers/pin/pin.o
 .debug_loc     0x000000000000a117     0x256c build/kernel/components/drivers/serial/serial.o
 .debug_loc     0x000000000000c683     0x2f2a build/kernel/components/finsh/cmd.o
 .debug_loc     0x000000000000f5ad     0x162a build/kernel/components/finsh/msh.o
 .debug_loc     0x0000000000010bd7      0x243 build/kernel/components/finsh/msh_parse.o
 .debug_loc     0x0000000000010e1a      0x725 build/kernel/components/finsh/shell.o
 .debug_loc     0x000000000001153f      0x35b build/kernel/src/clock.o
 .debug_loc     0x000000000001189a      0x176 build/kernel/src/components.o
 .debug_loc     0x0000000000011a10      0x1db build/kernel/src/cpu_up.o
 .debug_loc     0x0000000000011beb      0x639 build/kernel/src/idle.o
 .debug_loc     0x0000000000012224     0x8ec1 build/kernel/src/ipc.o
 .debug_loc     0x000000000001b0e5      0x161 build/kernel/src/irq.o
 .debug_loc     0x000000000001b246     0x2035 build/kernel/src/klibc/kstdio.o
 .debug_loc     0x000000000001d27b     0x15b1 build/kernel/src/klibc/kstring.o
 .debug_loc     0x000000000001e82c     0x17ab build/kernel/src/kservice.o
 .debug_loc     0x000000000001ffd7      0xe72 build/kernel/src/mem.o
 .debug_loc     0x0000000000020e49     0x17ed build/kernel/src/object.o
 .debug_loc     0x0000000000022636      0x654 build/kernel/src/scheduler_comm.o
 .debug_loc     0x0000000000022c8a      0x8a2 build/kernel/src/scheduler_up.o
 .debug_loc     0x000000000002352c     0x1c60 build/kernel/src/thread.o
 .debug_loc     0x000000000002518c     0x18cf build/kernel/src/timer.o
 .debug_loc     0x0000000000026a5b      0x2a8 /opt/Xuantie-900-gcc-elf-newlib-x86_64-V2.8.1/bin/../lib/gcc/riscv64-unknown-elf/10.4.0/rv64imafdc/lp64d/libgcc.a(eqtf2.o)
 .debug_loc     0x0000000000026d03      0x21a /opt/Xuantie-900-gcc-elf-newlib-x86_64-V2.8.1/bin/../lib/gcc/riscv64-unknown-elf/10.4.0/rv64imafdc/lp64d/libgcc.a(getf2.o)
 .debug_loc     0x0000000000026f1d      0x219 /opt/Xuantie-900-gcc-elf-newlib-x86_64-V2.8.1/bin/../lib/gcc/riscv64-unknown-elf/10.4.0/rv64imafdc/lp64d/libgcc.a(letf2.o)
 .debug_loc     0x0000000000027136     0x1ee6 /opt/Xuantie-900-gcc-elf-newlib-x86_64-V2.8.1/bin/../lib/gcc/riscv64-unknown-elf/10.4.0/rv64imafdc/lp64d/libgcc.a(multf3.o)
 .debug_loc     0x000000000002901c     0x2147 /opt/Xuantie-900-gcc-elf-newlib-x86_64-V2.8.1/bin/../lib/gcc/riscv64-unknown-elf/10.4.0/rv64imafdc/lp64d/libgcc.a(subtf3.o)
 .debug_loc     0x000000000002b163      0x488 /opt/Xuantie-900-gcc-elf-newlib-x86_64-V2.8.1/bin/../lib/gcc/riscv64-unknown-elf/10.4.0/rv64imafdc/lp64d/libgcc.a(fixtfsi.o)
 .debug_loc     0x000000000002b5eb      0x146 /opt/Xuantie-900-gcc-elf-newlib-x86_64-V2.8.1/bin/../lib/gcc/riscv64-unknown-elf/10.4.0/rv64imafdc/lp64d/libgcc.a(floatsitf.o)
 .debug_loc     0x000000000002b731      0x3a6 /opt/Xuantie-900-gcc-elf-newlib-x86_64-V2.8.1/bin/../lib/gcc/riscv64-unknown-elf/10.4.0/rv64imafdc/lp64d/libgcc.a(extenddftf2.o)
 .debug_loc     0x000000000002bad7      0x8fa /opt/Xuantie-900-gcc-elf-newlib-x86_64-V2.8.1/bin/../lib/gcc/riscv64-unknown-elf/10.4.0/rv64imafdc/lp64d/libgcc.a(trunctfdf2.o)
 .debug_loc     0x000000000002c3d1       0xaa /opt/Xuantie-900-gcc-elf-newlib-x86_64-V2.8.1/bin/../lib/gcc/riscv64-unknown-elf/10.4.0/rv64imafdc/lp64d/libgcc.a(_clzsi2.o)

.debug_aranges  0x0000000000000000     0x25b0
 .debug_aranges
                0x0000000000000000       0x80 build/kernel/components/libc/compilers/common/cstdlib.o
 .debug_aranges
                0x0000000000000080      0x1d0 build/kernel/components/libc/compilers/newlib/syscalls.o
 .debug_aranges
                0x0000000000000250       0x30 build/kernel/libcpu/risc-v/common/context_gcc.o
 .debug_aranges
                0x0000000000000280       0x60 build/kernel/libcpu/risc-v/common/cpuport.o
 .debug_aranges
                0x00000000000002e0       0x30 build/applications/main.o
 .debug_aranges
                0x0000000000000310       0x40 build/board/board.o
 .debug_aranges
                0x0000000000000350       0x60 build/board/board_uart.o
 .debug_aranges
                0x00000000000003b0       0x20 build/board/devices.o
 .debug_aranges
                0x00000000000003d0       0xa0 build/board/dw_uart_ll.o
 .debug_aranges
                0x0000000000000470       0x70 build/board/interrupt.o
 .debug_aranges
                0x00000000000004e0       0x80 build/board/irq.o
 .debug_aranges
                0x0000000000000560       0x80 build/board/irq_port.o
 .debug_aranges
                0x00000000000005e0       0x40 build/board/startup.o
 .debug_aranges
                0x0000000000000620       0x80 build/board/sys_clk.o
 .debug_aranges
                0x00000000000006a0       0x30 build/board/system.o
 .debug_aranges
                0x00000000000006d0       0x70 build/board/target_get.o
 .debug_aranges
                0x0000000000000740       0xb0 build/board/tick.o
 .debug_aranges
                0x00000000000007f0       0x40 build/board/trap_c.o
 .debug_aranges
                0x0000000000000830      0x170 build/board/uart.o
 .debug_aranges
                0x00000000000009a0       0x30 build/board/vectors.o
 .debug_aranges
                0x00000000000009d0       0xf0 build/kernel/components/drivers/core/device.o
 .debug_aranges
                0x0000000000000ac0       0x90 build/kernel/components/drivers/cputime/cputime.o
 .debug_aranges
                0x0000000000000b50       0x50 build/kernel/components/drivers/cputime/cputime_riscv.o
 .debug_aranges
                0x0000000000000ba0       0x50 build/kernel/components/drivers/ipc/completion_comm.o
 .debug_aranges
                0x0000000000000bf0       0x50 build/kernel/components/drivers/ipc/completion_up.o
 .debug_aranges
                0x0000000000000c40       0x90 build/kernel/components/drivers/ipc/dataqueue.o
 .debug_aranges
                0x0000000000000cd0       0xf0 build/kernel/components/drivers/pin/pin.o
 .debug_aranges
                0x0000000000000dc0       0xb0 build/kernel/components/drivers/serial/serial.o
 .debug_aranges
                0x0000000000000e70       0xf0 build/kernel/components/finsh/cmd.o
 .debug_aranges
                0x0000000000000f60       0xc0 build/kernel/components/finsh/msh.o
 .debug_aranges
                0x0000000000001020       0x50 build/kernel/components/finsh/msh_parse.o
 .debug_aranges
                0x0000000000001070      0x100 build/kernel/components/finsh/shell.o
 .debug_aranges
                0x0000000000001170       0x90 build/kernel/src/clock.o
 .debug_aranges
                0x0000000000001200       0x90 build/kernel/src/components.o
 .debug_aranges
                0x0000000000001290       0x90 build/kernel/src/cpu_up.o
 .debug_aranges
                0x0000000000001320       0x90 build/kernel/src/idle.o
 .debug_aranges
                0x00000000000013b0      0x4d0 build/kernel/src/ipc.o
 .debug_aranges
                0x0000000000001880       0x80 build/kernel/src/irq.o
 .debug_aranges
                0x0000000000001900       0xb0 build/kernel/src/klibc/kstdio.o
 .debug_aranges
                0x00000000000019b0       0xf0 build/kernel/src/klibc/kstring.o
 .debug_aranges
                0x0000000000001aa0      0x240 build/kernel/src/kservice.o
 .debug_aranges
                0x0000000000001ce0       0x80 build/kernel/src/mem.o
 .debug_aranges
                0x0000000000001d60      0x160 build/kernel/src/object.o
 .debug_aranges
                0x0000000000001ec0       0xf0 build/kernel/src/scheduler_comm.o
 .debug_aranges
                0x0000000000001fb0      0x130 build/kernel/src/scheduler_up.o
 .debug_aranges
                0x00000000000020e0      0x1b0 build/kernel/src/thread.o
 .debug_aranges
                0x0000000000002290      0x120 build/kernel/src/timer.o
 .debug_aranges
                0x00000000000023b0       0x30 /opt/Xuantie-900-gcc-elf-newlib-x86_64-V2.8.1/bin/../lib/gcc/riscv64-unknown-elf/10.4.0/rv64imafdc/lp64d/libgcc.a(eqtf2.o)
 .debug_aranges
                0x00000000000023e0       0x30 /opt/Xuantie-900-gcc-elf-newlib-x86_64-V2.8.1/bin/../lib/gcc/riscv64-unknown-elf/10.4.0/rv64imafdc/lp64d/libgcc.a(getf2.o)
 .debug_aranges
                0x0000000000002410       0x30 /opt/Xuantie-900-gcc-elf-newlib-x86_64-V2.8.1/bin/../lib/gcc/riscv64-unknown-elf/10.4.0/rv64imafdc/lp64d/libgcc.a(letf2.o)
 .debug_aranges
                0x0000000000002440       0x30 /opt/Xuantie-900-gcc-elf-newlib-x86_64-V2.8.1/bin/../lib/gcc/riscv64-unknown-elf/10.4.0/rv64imafdc/lp64d/libgcc.a(multf3.o)
 .debug_aranges
                0x0000000000002470       0x30 /opt/Xuantie-900-gcc-elf-newlib-x86_64-V2.8.1/bin/../lib/gcc/riscv64-unknown-elf/10.4.0/rv64imafdc/lp64d/libgcc.a(subtf3.o)
 .debug_aranges
                0x00000000000024a0       0x30 /opt/Xuantie-900-gcc-elf-newlib-x86_64-V2.8.1/bin/../lib/gcc/riscv64-unknown-elf/10.4.0/rv64imafdc/lp64d/libgcc.a(fixtfsi.o)
 .debug_aranges
                0x00000000000024d0       0x30 /opt/Xuantie-900-gcc-elf-newlib-x86_64-V2.8.1/bin/../lib/gcc/riscv64-unknown-elf/10.4.0/rv64imafdc/lp64d/libgcc.a(floatsitf.o)
 .debug_aranges
                0x0000000000002500       0x30 /opt/Xuantie-900-gcc-elf-newlib-x86_64-V2.8.1/bin/../lib/gcc/riscv64-unknown-elf/10.4.0/rv64imafdc/lp64d/libgcc.a(extenddftf2.o)
 .debug_aranges
                0x0000000000002530       0x30 /opt/Xuantie-900-gcc-elf-newlib-x86_64-V2.8.1/bin/../lib/gcc/riscv64-unknown-elf/10.4.0/rv64imafdc/lp64d/libgcc.a(trunctfdf2.o)
 .debug_aranges
                0x0000000000002560       0x30 /opt/Xuantie-900-gcc-elf-newlib-x86_64-V2.8.1/bin/../lib/gcc/riscv64-unknown-elf/10.4.0/rv64imafdc/lp64d/libgcc.a(_clzsi2.o)
 .debug_aranges
                0x0000000000002590       0x20 /opt/Xuantie-900-gcc-elf-newlib-x86_64-V2.8.1/bin/../lib/gcc/riscv64-unknown-elf/10.4.0/rv64imafdc/lp64d/libgcc.a(_clz.o)

.debug_ranges   0x0000000000000000     0x7f40
 .debug_ranges  0x0000000000000000       0xb0 build/kernel/components/libc/compilers/common/cstdlib.o
 .debug_ranges  0x00000000000000b0      0x210 build/kernel/components/libc/compilers/newlib/syscalls.o
 .debug_ranges  0x00000000000002c0       0x50 build/kernel/libcpu/risc-v/common/cpuport.o
 .debug_ranges  0x0000000000000310       0x20 build/applications/main.o
 .debug_ranges  0x0000000000000330       0x30 build/board/board.o
 .debug_ranges  0x0000000000000360       0x50 build/board/board_uart.o
 .debug_ranges  0x00000000000003b0       0xc0 build/board/dw_uart_ll.o
 .debug_ranges  0x0000000000000470       0x60 build/board/interrupt.o
 .debug_ranges  0x00000000000004d0       0x70 build/board/irq.o
 .debug_ranges  0x0000000000000540       0xa0 build/board/irq_port.o
 .debug_ranges  0x00000000000005e0       0x40 build/board/startup.o
 .debug_ranges  0x0000000000000620       0x70 build/board/sys_clk.o
 .debug_ranges  0x0000000000000690      0x1a0 build/board/system.o
 .debug_ranges  0x0000000000000830       0x60 build/board/target_get.o
 .debug_ranges  0x0000000000000890      0x1b0 build/board/tick.o
 .debug_ranges  0x0000000000000a40       0x60 build/board/trap_c.o
 .debug_ranges  0x0000000000000aa0      0x760 build/board/uart.o
 .debug_ranges  0x0000000000001200      0x120 build/kernel/components/drivers/core/device.o
 .debug_ranges  0x0000000000001320      0x120 build/kernel/components/drivers/cputime/cputime.o
 .debug_ranges  0x0000000000001440       0x40 build/kernel/components/drivers/cputime/cputime_riscv.o
 .debug_ranges  0x0000000000001480       0x40 build/kernel/components/drivers/ipc/completion_comm.o
 .debug_ranges  0x00000000000014c0       0xb0 build/kernel/components/drivers/ipc/completion_up.o
 .debug_ranges  0x0000000000001570      0x110 build/kernel/components/drivers/ipc/dataqueue.o
 .debug_ranges  0x0000000000001680      0x560 build/kernel/components/drivers/pin/pin.o
 .debug_ranges  0x0000000000001be0      0x890 build/kernel/components/drivers/serial/serial.o
 .debug_ranges  0x0000000000002470      0xd40 build/kernel/components/finsh/cmd.o
 .debug_ranges  0x00000000000031b0      0x2a0 build/kernel/components/finsh/msh.o
 .debug_ranges  0x0000000000003450       0xe0 build/kernel/components/finsh/msh_parse.o
 .debug_ranges  0x0000000000003530      0x3d0 build/kernel/components/finsh/shell.o
 .debug_ranges  0x0000000000003900      0x1b0 build/kernel/src/clock.o
 .debug_ranges  0x0000000000003ab0       0xe0 build/kernel/src/components.o
 .debug_ranges  0x0000000000003b90       0x80 build/kernel/src/cpu_up.o
 .debug_ranges  0x0000000000003c10      0x170 build/kernel/src/idle.o
 .debug_ranges  0x0000000000003d80     0x1340 build/kernel/src/ipc.o
 .debug_ranges  0x00000000000050c0       0xe0 build/kernel/src/irq.o
 .debug_ranges  0x00000000000051a0      0x110 build/kernel/src/klibc/kstdio.o
 .debug_ranges  0x00000000000052b0      0x1e0 build/kernel/src/klibc/kstring.o
 .debug_ranges  0x0000000000005490      0x4b0 build/kernel/src/kservice.o
 .debug_ranges  0x0000000000005940       0x70 build/kernel/src/mem.o
 .debug_ranges  0x00000000000059b0      0x460 build/kernel/src/object.o
 .debug_ranges  0x0000000000005e10      0x190 build/kernel/src/scheduler_comm.o
 .debug_ranges  0x0000000000005fa0      0x300 build/kernel/src/scheduler_up.o
 .debug_ranges  0x00000000000062a0      0x480 build/kernel/src/thread.o
 .debug_ranges  0x0000000000006720      0x730 build/kernel/src/timer.o
 .debug_ranges  0x0000000000006e50       0xb0 /opt/Xuantie-900-gcc-elf-newlib-x86_64-V2.8.1/bin/../lib/gcc/riscv64-unknown-elf/10.4.0/rv64imafdc/lp64d/libgcc.a(eqtf2.o)
 .debug_ranges  0x0000000000006f00       0xb0 /opt/Xuantie-900-gcc-elf-newlib-x86_64-V2.8.1/bin/../lib/gcc/riscv64-unknown-elf/10.4.0/rv64imafdc/lp64d/libgcc.a(getf2.o)
 .debug_ranges  0x0000000000006fb0       0xb0 /opt/Xuantie-900-gcc-elf-newlib-x86_64-V2.8.1/bin/../lib/gcc/riscv64-unknown-elf/10.4.0/rv64imafdc/lp64d/libgcc.a(letf2.o)
 .debug_ranges  0x0000000000007060      0x590 /opt/Xuantie-900-gcc-elf-newlib-x86_64-V2.8.1/bin/../lib/gcc/riscv64-unknown-elf/10.4.0/rv64imafdc/lp64d/libgcc.a(multf3.o)
 .debug_ranges  0x00000000000075f0      0x690 /opt/Xuantie-900-gcc-elf-newlib-x86_64-V2.8.1/bin/../lib/gcc/riscv64-unknown-elf/10.4.0/rv64imafdc/lp64d/libgcc.a(subtf3.o)
 .debug_ranges  0x0000000000007c80       0x90 /opt/Xuantie-900-gcc-elf-newlib-x86_64-V2.8.1/bin/../lib/gcc/riscv64-unknown-elf/10.4.0/rv64imafdc/lp64d/libgcc.a(fixtfsi.o)
 .debug_ranges  0x0000000000007d10       0xa0 /opt/Xuantie-900-gcc-elf-newlib-x86_64-V2.8.1/bin/../lib/gcc/riscv64-unknown-elf/10.4.0/rv64imafdc/lp64d/libgcc.a(floatsitf.o)
 .debug_ranges  0x0000000000007db0       0x30 /opt/Xuantie-900-gcc-elf-newlib-x86_64-V2.8.1/bin/../lib/gcc/riscv64-unknown-elf/10.4.0/rv64imafdc/lp64d/libgcc.a(extenddftf2.o)
 .debug_ranges  0x0000000000007de0      0x130 /opt/Xuantie-900-gcc-elf-newlib-x86_64-V2.8.1/bin/../lib/gcc/riscv64-unknown-elf/10.4.0/rv64imafdc/lp64d/libgcc.a(trunctfdf2.o)
 .debug_ranges  0x0000000000007f10       0x30 /opt/Xuantie-900-gcc-elf-newlib-x86_64-V2.8.1/bin/../lib/gcc/riscv64-unknown-elf/10.4.0/rv64imafdc/lp64d/libgcc.a(_clzsi2.o)

.debug_line     0x0000000000000000    0x2e97f
 .debug_line    0x0000000000000000      0x76c build/kernel/components/libc/compilers/common/cstdlib.o
 .debug_line    0x000000000000076c      0xd43 build/kernel/components/libc/compilers/newlib/syscalls.o
 .debug_line    0x00000000000014af      0x400 build/kernel/libcpu/risc-v/common/context_gcc.o
 .debug_line    0x00000000000018af      0x386 build/kernel/libcpu/risc-v/common/cpuport.o
 .debug_line    0x0000000000001c35       0xb8 build/applications/main.o
 .debug_line    0x0000000000001ced      0x1a7 build/board/board.o
 .debug_line    0x0000000000001e94      0x3f1 build/board/board_uart.o
 .debug_line    0x0000000000002285      0x138 build/board/devices.o
 .debug_line    0x00000000000023bd      0x6e3 build/board/dw_uart_ll.o
 .debug_line    0x0000000000002aa0      0x3da build/board/interrupt.o
 .debug_line    0x0000000000002e7a      0x3b9 build/board/irq.o
 .debug_line    0x0000000000003233      0x399 build/board/irq_port.o
 .debug_line    0x00000000000035cc      0x106 build/board/startup.o
 .debug_line    0x00000000000036d2      0x1f2 build/board/sys_clk.o
 .debug_line    0x00000000000038c4      0x799 build/board/system.o
 .debug_line    0x000000000000405d      0x8b0 build/board/target_get.o
 .debug_line    0x000000000000490d      0x8ff build/board/tick.o
 .debug_line    0x000000000000520c      0x31b build/board/trap_c.o
 .debug_line    0x0000000000005527     0x25b0 build/board/uart.o
 .debug_line    0x0000000000007ad7      0x608 build/board/vectors.o
 .debug_line    0x00000000000080df      0xe77 build/kernel/components/drivers/core/device.o
 .debug_line    0x0000000000008f56      0x5ce build/kernel/components/drivers/cputime/cputime.o
 .debug_line    0x0000000000009524      0x252 build/kernel/components/drivers/cputime/cputime_riscv.o
 .debug_line    0x0000000000009776      0x222 build/kernel/components/drivers/ipc/completion_comm.o
 .debug_line    0x0000000000009998      0x823 build/kernel/components/drivers/ipc/completion_up.o
 .debug_line    0x000000000000a1bb     0x128b build/kernel/components/drivers/ipc/dataqueue.o
 .debug_line    0x000000000000b446     0x13d6 build/kernel/components/drivers/pin/pin.o
 .debug_line    0x000000000000c81c     0x25ac build/kernel/components/drivers/serial/serial.o
 .debug_line    0x000000000000edc8     0x2a04 build/kernel/components/finsh/cmd.o
 .debug_line    0x00000000000117cc     0x14a1 build/kernel/components/finsh/msh.o
 .debug_line    0x0000000000012c6d      0x459 build/kernel/components/finsh/msh_parse.o
 .debug_line    0x00000000000130c6     0x190d build/kernel/components/finsh/shell.o
 .debug_line    0x00000000000149d3      0x644 build/kernel/src/clock.o
 .debug_line    0x0000000000015017      0x524 build/kernel/src/components.o
 .debug_line    0x000000000001553b      0x350 build/kernel/src/cpu_up.o
 .debug_line    0x000000000001588b      0x936 build/kernel/src/idle.o
 .debug_line    0x00000000000161c1     0x8078 build/kernel/src/ipc.o
 .debug_line    0x000000000001e239      0x42e build/kernel/src/irq.o
 .debug_line    0x000000000001e667     0x1bbc build/kernel/src/klibc/kstdio.o
 .debug_line    0x0000000000020223      0xfa1 build/kernel/src/klibc/kstring.o
 .debug_line    0x00000000000211c4     0x19d7 build/kernel/src/kservice.o
 .debug_line    0x0000000000022b9b     0x118d build/kernel/src/mem.o
 .debug_line    0x0000000000023d28     0x18b3 build/kernel/src/object.o
 .debug_line    0x00000000000255db      0x9e5 build/kernel/src/scheduler_comm.o
 .debug_line    0x0000000000025fc0      0xf40 build/kernel/src/scheduler_up.o
 .debug_line    0x0000000000026f00     0x1a41 build/kernel/src/thread.o
 .debug_line    0x0000000000028941     0x1ca4 build/kernel/src/timer.o
 .debug_line    0x000000000002a5e5      0x348 /opt/Xuantie-900-gcc-elf-newlib-x86_64-V2.8.1/bin/../lib/gcc/riscv64-unknown-elf/10.4.0/rv64imafdc/lp64d/libgcc.a(eqtf2.o)
 .debug_line    0x000000000002a92d      0x35c /opt/Xuantie-900-gcc-elf-newlib-x86_64-V2.8.1/bin/../lib/gcc/riscv64-unknown-elf/10.4.0/rv64imafdc/lp64d/libgcc.a(getf2.o)
 .debug_line    0x000000000002ac89      0x35c /opt/Xuantie-900-gcc-elf-newlib-x86_64-V2.8.1/bin/../lib/gcc/riscv64-unknown-elf/10.4.0/rv64imafdc/lp64d/libgcc.a(letf2.o)
 .debug_line    0x000000000002afe5     0x123b /opt/Xuantie-900-gcc-elf-newlib-x86_64-V2.8.1/bin/../lib/gcc/riscv64-unknown-elf/10.4.0/rv64imafdc/lp64d/libgcc.a(multf3.o)
 .debug_line    0x000000000002c220     0x14f6 /opt/Xuantie-900-gcc-elf-newlib-x86_64-V2.8.1/bin/../lib/gcc/riscv64-unknown-elf/10.4.0/rv64imafdc/lp64d/libgcc.a(subtf3.o)
 .debug_line    0x000000000002d716      0x360 /opt/Xuantie-900-gcc-elf-newlib-x86_64-V2.8.1/bin/../lib/gcc/riscv64-unknown-elf/10.4.0/rv64imafdc/lp64d/libgcc.a(fixtfsi.o)
 .debug_line    0x000000000002da76      0x27b /opt/Xuantie-900-gcc-elf-newlib-x86_64-V2.8.1/bin/../lib/gcc/riscv64-unknown-elf/10.4.0/rv64imafdc/lp64d/libgcc.a(floatsitf.o)
 .debug_line    0x000000000002dcf1      0x3d8 /opt/Xuantie-900-gcc-elf-newlib-x86_64-V2.8.1/bin/../lib/gcc/riscv64-unknown-elf/10.4.0/rv64imafdc/lp64d/libgcc.a(extenddftf2.o)
 .debug_line    0x000000000002e0c9      0x6ec /opt/Xuantie-900-gcc-elf-newlib-x86_64-V2.8.1/bin/../lib/gcc/riscv64-unknown-elf/10.4.0/rv64imafdc/lp64d/libgcc.a(trunctfdf2.o)
 .debug_line    0x000000000002e7b5      0x130 /opt/Xuantie-900-gcc-elf-newlib-x86_64-V2.8.1/bin/../lib/gcc/riscv64-unknown-elf/10.4.0/rv64imafdc/lp64d/libgcc.a(_clzsi2.o)
 .debug_line    0x000000000002e8e5       0x9a /opt/Xuantie-900-gcc-elf-newlib-x86_64-V2.8.1/bin/../lib/gcc/riscv64-unknown-elf/10.4.0/rv64imafdc/lp64d/libgcc.a(_clz.o)

.debug_str      0x0000000000000000     0x7386
 .debug_str     0x0000000000000000      0x364 build/kernel/components/libc/compilers/common/cstdlib.o
                                        0x468 (size before relaxing)
 .debug_str     0x0000000000000364      0x930 build/kernel/components/libc/compilers/newlib/syscalls.o
                                        0xc73 (size before relaxing)
 .debug_str     0x0000000000000c94       0x4e build/kernel/libcpu/risc-v/common/context_gcc.o
                                         0x7d (size before relaxing)
 .debug_str     0x0000000000000ce2      0x137 build/kernel/libcpu/risc-v/common/cpuport.o
                                        0x4d8 (size before relaxing)
 .debug_str     0x0000000000000e19       0x19 build/applications/main.o
                                        0x168 (size before relaxing)
 .debug_str     0x0000000000000e32       0xdb build/board/board.o
                                        0x231 (size before relaxing)
 .debug_str     0x0000000000000f0d      0x512 build/board/board_uart.o
                                        0xba6 (size before relaxing)
 .debug_str     0x000000000000141f      0xbdc build/board/devices.o
                                        0xde6 (size before relaxing)
 .debug_str     0x0000000000001ffb      0x13f build/board/dw_uart_ll.o
                                        0x2d3 (size before relaxing)
 .debug_str     0x000000000000213a       0xf2 build/board/interrupt.o
                                        0x320 (size before relaxing)
 .debug_str     0x000000000000222c       0xa6 build/board/irq.o
                                        0x2b3 (size before relaxing)
 .debug_str     0x00000000000022d2      0x281 build/board/irq_port.o
                                        0x438 (size before relaxing)
 .debug_str     0x0000000000002553       0x10 build/board/startup.o
                                         0x4b (size before relaxing)
 .debug_str     0x0000000000002563      0x184 build/board/sys_clk.o
                                        0x33e (size before relaxing)
 .debug_str     0x00000000000026e7      0x1ab build/board/system.o
                                        0x52e (size before relaxing)
 .debug_str     0x0000000000002892      0x10b build/board/target_get.o
                                        0xee9 (size before relaxing)
 .debug_str     0x000000000000299d      0x276 build/board/tick.o
                                        0x4ec (size before relaxing)
 .debug_str     0x0000000000002c13       0x55 build/board/trap_c.o
                                        0x1b9 (size before relaxing)
 .debug_str     0x0000000000002c68      0x65a build/board/uart.o
                                       0x113b (size before relaxing)
 .debug_str     0x00000000000032c2       0x10 build/board/vectors.o
                                         0x4b (size before relaxing)
 .debug_str     0x00000000000032d2      0x399 build/kernel/components/drivers/core/device.o
                                        0x961 (size before relaxing)
 .debug_str     0x000000000000366b      0x106 build/kernel/components/drivers/cputime/cputime.o
                                        0x2c9 (size before relaxing)
 .debug_str     0x0000000000003771       0xb4 build/kernel/components/drivers/cputime/cputime_riscv.o
                                        0x277 (size before relaxing)
 .debug_str     0x0000000000003825      0x117 build/kernel/components/drivers/ipc/completion_comm.o
                                        0x29e (size before relaxing)
 .debug_str     0x000000000000393c      0x163 build/kernel/components/drivers/ipc/completion_up.o
                                        0x5bb (size before relaxing)
 .debug_str     0x0000000000003a9f      0x1ce build/kernel/components/drivers/ipc/dataqueue.o
                                        0x6ee (size before relaxing)
 .debug_str     0x0000000000003c6d      0x1d8 build/kernel/components/drivers/pin/pin.o
                                        0x842 (size before relaxing)
 .debug_str     0x0000000000003e45      0x24e build/kernel/components/drivers/serial/serial.o
                                        0xb75 (size before relaxing)
 .debug_str     0x0000000000004093      0x40a build/kernel/components/finsh/cmd.o
                                        0xdeb (size before relaxing)
 .debug_str     0x000000000000449d      0x268 build/kernel/components/finsh/msh.o
                                        0x4c7 (size before relaxing)
 .debug_str     0x0000000000004705       0x64 build/kernel/components/finsh/msh_parse.o
                                        0x1c2 (size before relaxing)
 .debug_str     0x0000000000004769      0x2c8 build/kernel/components/finsh/shell.o
                                        0xc1a (size before relaxing)
 .debug_str     0x0000000000004a31      0x139 build/kernel/src/clock.o
                                        0x33c (size before relaxing)
 .debug_str     0x0000000000004b6a      0x151 build/kernel/src/components.o
                                        0x59b (size before relaxing)
 .debug_str     0x0000000000004cbb       0x99 build/kernel/src/cpu_up.o
                                        0x497 (size before relaxing)
 .debug_str     0x0000000000004d54      0x18b build/kernel/src/idle.o
                                        0x616 (size before relaxing)
 .debug_str     0x0000000000004edf      0x77c build/kernel/src/ipc.o
                                       0x1194 (size before relaxing)
 .debug_str     0x000000000000565b       0xbe build/kernel/src/irq.o
                                        0x2f3 (size before relaxing)
 .debug_str     0x0000000000005719      0x122 build/kernel/src/klibc/kstdio.o
                                        0x5b4 (size before relaxing)
 .debug_str     0x000000000000583b       0xb9 build/kernel/src/klibc/kstring.o
                                        0x29f (size before relaxing)
 .debug_str     0x00000000000058f4      0x408 build/kernel/src/kservice.o
                                        0xfde (size before relaxing)
 .debug_str     0x0000000000005cfc       0xb8 build/kernel/src/mem.o
                                        0x5a6 (size before relaxing)
 .debug_str     0x0000000000005db4      0x2ff build/kernel/src/object.o
                                        0x943 (size before relaxing)
 .debug_str     0x00000000000060b3      0x138 build/kernel/src/scheduler_comm.o
                                        0x5ff (size before relaxing)
 .debug_str     0x00000000000061eb      0x1cb build/kernel/src/scheduler_up.o
                                        0x819 (size before relaxing)
 .debug_str     0x00000000000063b6      0x1fc build/kernel/src/thread.o
                                        0xcb1 (size before relaxing)
 .debug_str     0x00000000000065b2      0x1d3 build/kernel/src/timer.o
                                        0xa91 (size before relaxing)
 .debug_str     0x0000000000006785      0x278 /opt/Xuantie-900-gcc-elf-newlib-x86_64-V2.8.1/bin/../lib/gcc/riscv64-unknown-elf/10.4.0/rv64imafdc/lp64d/libgcc.a(eqtf2.o)
                                        0x2f5 (size before relaxing)
 .debug_str     0x00000000000069fd       0x9f /opt/Xuantie-900-gcc-elf-newlib-x86_64-V2.8.1/bin/../lib/gcc/riscv64-unknown-elf/10.4.0/rv64imafdc/lp64d/libgcc.a(getf2.o)
                                        0x319 (size before relaxing)
 .debug_str     0x0000000000006a9c       0x7b /opt/Xuantie-900-gcc-elf-newlib-x86_64-V2.8.1/bin/../lib/gcc/riscv64-unknown-elf/10.4.0/rv64imafdc/lp64d/libgcc.a(letf2.o)
                                        0x319 (size before relaxing)
 .debug_str     0x0000000000006b17      0x393 /opt/Xuantie-900-gcc-elf-newlib-x86_64-V2.8.1/bin/../lib/gcc/riscv64-unknown-elf/10.4.0/rv64imafdc/lp64d/libgcc.a(multf3.o)
                                        0x5ee (size before relaxing)
 .debug_str     0x0000000000006eaa      0x163 /opt/Xuantie-900-gcc-elf-newlib-x86_64-V2.8.1/bin/../lib/gcc/riscv64-unknown-elf/10.4.0/rv64imafdc/lp64d/libgcc.a(subtf3.o)
                                        0x3e4 (size before relaxing)
 .debug_str     0x000000000000700d       0x92 /opt/Xuantie-900-gcc-elf-newlib-x86_64-V2.8.1/bin/../lib/gcc/riscv64-unknown-elf/10.4.0/rv64imafdc/lp64d/libgcc.a(fixtfsi.o)
                                        0x2f2 (size before relaxing)
 .debug_str     0x000000000000709f       0xb0 /opt/Xuantie-900-gcc-elf-newlib-x86_64-V2.8.1/bin/../lib/gcc/riscv64-unknown-elf/10.4.0/rv64imafdc/lp64d/libgcc.a(floatsitf.o)
                                        0x391 (size before relaxing)
 .debug_str     0x000000000000714f       0xbc /opt/Xuantie-900-gcc-elf-newlib-x86_64-V2.8.1/bin/../lib/gcc/riscv64-unknown-elf/10.4.0/rv64imafdc/lp64d/libgcc.a(extenddftf2.o)
                                        0x320 (size before relaxing)
 .debug_str     0x000000000000720b       0xad /opt/Xuantie-900-gcc-elf-newlib-x86_64-V2.8.1/bin/../lib/gcc/riscv64-unknown-elf/10.4.0/rv64imafdc/lp64d/libgcc.a(trunctfdf2.o)
                                        0x375 (size before relaxing)
 .debug_str     0x00000000000072b8       0xce /opt/Xuantie-900-gcc-elf-newlib-x86_64-V2.8.1/bin/../lib/gcc/riscv64-unknown-elf/10.4.0/rv64imafdc/lp64d/libgcc.a(_clzsi2.o)
                                        0x30f (size before relaxing)
 .debug_str     0x0000000000007386      0x2f2 /opt/Xuantie-900-gcc-elf-newlib-x86_64-V2.8.1/bin/../lib/gcc/riscv64-unknown-elf/10.4.0/rv64imafdc/lp64d/libgcc.a(_clz.o)

.comment        0x0000000000000000       0x57
 .comment       0x0000000000000000       0x45 build/kernel/components/libc/compilers/common/cstdlib.o
                                         0x46 (size before relaxing)
 .comment       0x0000000000000045       0x46 build/kernel/components/libc/compilers/newlib/syscalls.o
 .comment       0x0000000000000045       0x46 build/kernel/libcpu/risc-v/common/cpuport.o
 .comment       0x0000000000000045       0x46 build/applications/main.o
 .comment       0x0000000000000045       0x46 build/board/board.o
 .comment       0x0000000000000045       0x46 build/board/board_uart.o
 .comment       0x0000000000000045       0x46 build/board/devices.o
 .comment       0x0000000000000045       0x46 build/board/dw_uart_ll.o
 .comment       0x0000000000000045       0x46 build/board/interrupt.o
 .comment       0x0000000000000045       0x46 build/board/irq.o
 .comment       0x0000000000000045       0x46 build/board/irq_port.o
 .comment       0x0000000000000045       0x46 build/board/sys_clk.o
 .comment       0x0000000000000045       0x46 build/board/system.o
 .comment       0x0000000000000045       0x46 build/board/target_get.o
 .comment       0x0000000000000045       0x46 build/board/tick.o
 .comment       0x0000000000000045       0x46 build/board/trap_c.o
 .comment       0x0000000000000045       0x46 build/board/uart.o
 .comment       0x0000000000000045       0x46 build/kernel/components/drivers/core/device.o
 .comment       0x0000000000000045       0x46 build/kernel/components/drivers/cputime/cputime.o
 .comment       0x0000000000000045       0x46 build/kernel/components/drivers/cputime/cputime_riscv.o
 .comment       0x0000000000000045       0x46 build/kernel/components/drivers/ipc/completion_comm.o
 .comment       0x0000000000000045       0x46 build/kernel/components/drivers/ipc/completion_up.o
 .comment       0x0000000000000045       0x46 build/kernel/components/drivers/ipc/dataqueue.o
 .comment       0x0000000000000045       0x46 build/kernel/components/drivers/pin/pin.o
 .comment       0x0000000000000045       0x46 build/kernel/components/drivers/serial/serial.o
 .comment       0x0000000000000045       0x46 build/kernel/components/finsh/cmd.o
 .comment       0x0000000000000045       0x46 build/kernel/components/finsh/msh.o
 .comment       0x0000000000000045       0x46 build/kernel/components/finsh/msh_parse.o
 .comment       0x0000000000000045       0x46 build/kernel/components/finsh/shell.o
 .comment       0x0000000000000045       0x46 build/kernel/src/clock.o
 .comment       0x0000000000000045       0x46 build/kernel/src/components.o
 .comment       0x0000000000000045       0x46 build/kernel/src/cpu_up.o
 .comment       0x0000000000000045       0x46 build/kernel/src/idle.o
 .comment       0x0000000000000045       0x46 build/kernel/src/ipc.o
 .comment       0x0000000000000045       0x46 build/kernel/src/irq.o
 .comment       0x0000000000000045       0x46 build/kernel/src/klibc/kstdio.o
 .comment       0x0000000000000045       0x46 build/kernel/src/klibc/kstring.o
 .comment       0x0000000000000045       0x46 build/kernel/src/kservice.o
 .comment       0x0000000000000045       0x46 build/kernel/src/mem.o
 .comment       0x0000000000000045       0x46 build/kernel/src/object.o
 .comment       0x0000000000000045       0x46 build/kernel/src/scheduler_comm.o
 .comment       0x0000000000000045       0x46 build/kernel/src/scheduler_up.o
 .comment       0x0000000000000045       0x46 build/kernel/src/thread.o
 .comment       0x0000000000000045       0x46 build/kernel/src/timer.o
 .comment       0x0000000000000045       0x12 /opt/Xuantie-900-gcc-elf-newlib-x86_64-V2.8.1/bin/../lib/gcc/riscv64-unknown-elf/10.4.0/../../../../riscv64-unknown-elf/lib/rv64imafdc/lp64d/libc.a(lib_a-atoi.o)
                                         0x13 (size before relaxing)
 .comment       0x0000000000000057       0x13 /opt/Xuantie-900-gcc-elf-newlib-x86_64-V2.8.1/bin/../lib/gcc/riscv64-unknown-elf/10.4.0/../../../../riscv64-unknown-elf/lib/rv64imafdc/lp64d/libc.a(lib_a-ctype_.o)
 .comment       0x0000000000000057       0x13 /opt/Xuantie-900-gcc-elf-newlib-x86_64-V2.8.1/bin/../lib/gcc/riscv64-unknown-elf/10.4.0/../../../../riscv64-unknown-elf/lib/rv64imafdc/lp64d/libc.a(lib_a-memcmp.o)
 .comment       0x0000000000000057       0x13 /opt/Xuantie-900-gcc-elf-newlib-x86_64-V2.8.1/bin/../lib/gcc/riscv64-unknown-elf/10.4.0/../../../../riscv64-unknown-elf/lib/rv64imafdc/lp64d/libc.a(lib_a-printf.o)
 .comment       0x0000000000000057       0x13 /opt/Xuantie-900-gcc-elf-newlib-x86_64-V2.8.1/bin/../lib/gcc/riscv64-unknown-elf/10.4.0/../../../../riscv64-unknown-elf/lib/rv64imafdc/lp64d/libc.a(lib_a-strchr.o)
 .comment       0x0000000000000057       0x13 /opt/Xuantie-900-gcc-elf-newlib-x86_64-V2.8.1/bin/../lib/gcc/riscv64-unknown-elf/10.4.0/../../../../riscv64-unknown-elf/lib/rv64imafdc/lp64d/libc.a(lib_a-strcpy.o)
 .comment       0x0000000000000057       0x13 /opt/Xuantie-900-gcc-elf-newlib-x86_64-V2.8.1/bin/../lib/gcc/riscv64-unknown-elf/10.4.0/../../../../riscv64-unknown-elf/lib/rv64imafdc/lp64d/libc.a(lib_a-strlen.o)
 .comment       0x0000000000000057       0x13 /opt/Xuantie-900-gcc-elf-newlib-x86_64-V2.8.1/bin/../lib/gcc/riscv64-unknown-elf/10.4.0/../../../../riscv64-unknown-elf/lib/rv64imafdc/lp64d/libc.a(lib_a-strncmp.o)
 .comment       0x0000000000000057       0x13 /opt/Xuantie-900-gcc-elf-newlib-x86_64-V2.8.1/bin/../lib/gcc/riscv64-unknown-elf/10.4.0/../../../../riscv64-unknown-elf/lib/rv64imafdc/lp64d/libc.a(lib_a-strncpy.o)
 .comment       0x0000000000000057       0x13 /opt/Xuantie-900-gcc-elf-newlib-x86_64-V2.8.1/bin/../lib/gcc/riscv64-unknown-elf/10.4.0/../../../../riscv64-unknown-elf/lib/rv64imafdc/lp64d/libc.a(lib_a-strtol.o)
 .comment       0x0000000000000057       0x13 /opt/Xuantie-900-gcc-elf-newlib-x86_64-V2.8.1/bin/../lib/gcc/riscv64-unknown-elf/10.4.0/../../../../riscv64-unknown-elf/lib/rv64imafdc/lp64d/libc.a(lib_a-strtoul.o)
 .comment       0x0000000000000057       0x13 /opt/Xuantie-900-gcc-elf-newlib-x86_64-V2.8.1/bin/../lib/gcc/riscv64-unknown-elf/10.4.0/../../../../riscv64-unknown-elf/lib/rv64imafdc/lp64d/libc.a(lib_a-vfprintf.o)
 .comment       0x0000000000000057       0x13 /opt/Xuantie-900-gcc-elf-newlib-x86_64-V2.8.1/bin/../lib/gcc/riscv64-unknown-elf/10.4.0/../../../../riscv64-unknown-elf/lib/rv64imafdc/lp64d/libc.a(lib_a-wsetup.o)
 .comment       0x0000000000000057       0x13 /opt/Xuantie-900-gcc-elf-newlib-x86_64-V2.8.1/bin/../lib/gcc/riscv64-unknown-elf/10.4.0/../../../../riscv64-unknown-elf/lib/rv64imafdc/lp64d/libc.a(lib_a-fflush.o)
 .comment       0x0000000000000057       0x13 /opt/Xuantie-900-gcc-elf-newlib-x86_64-V2.8.1/bin/../lib/gcc/riscv64-unknown-elf/10.4.0/../../../../riscv64-unknown-elf/lib/rv64imafdc/lp64d/libc.a(lib_a-findfp.o)
 .comment       0x0000000000000057       0x13 /opt/Xuantie-900-gcc-elf-newlib-x86_64-V2.8.1/bin/../lib/gcc/riscv64-unknown-elf/10.4.0/../../../../riscv64-unknown-elf/lib/rv64imafdc/lp64d/libc.a(lib_a-fwalk.o)
 .comment       0x0000000000000057       0x13 /opt/Xuantie-900-gcc-elf-newlib-x86_64-V2.8.1/bin/../lib/gcc/riscv64-unknown-elf/10.4.0/../../../../riscv64-unknown-elf/lib/rv64imafdc/lp64d/libc.a(lib_a-impure.o)
 .comment       0x0000000000000057       0x13 /opt/Xuantie-900-gcc-elf-newlib-x86_64-V2.8.1/bin/../lib/gcc/riscv64-unknown-elf/10.4.0/../../../../riscv64-unknown-elf/lib/rv64imafdc/lp64d/libc.a(lib_a-ldtoa.o)
 .comment       0x0000000000000057       0x13 /opt/Xuantie-900-gcc-elf-newlib-x86_64-V2.8.1/bin/../lib/gcc/riscv64-unknown-elf/10.4.0/../../../../riscv64-unknown-elf/lib/rv64imafdc/lp64d/libc.a(lib_a-localeconv.o)
 .comment       0x0000000000000057       0x13 /opt/Xuantie-900-gcc-elf-newlib-x86_64-V2.8.1/bin/../lib/gcc/riscv64-unknown-elf/10.4.0/../../../../riscv64-unknown-elf/lib/rv64imafdc/lp64d/libc.a(lib_a-lock.o)
 .comment       0x0000000000000057       0x13 /opt/Xuantie-900-gcc-elf-newlib-x86_64-V2.8.1/bin/../lib/gcc/riscv64-unknown-elf/10.4.0/../../../../riscv64-unknown-elf/lib/rv64imafdc/lp64d/libc.a(lib_a-makebuf.o)
 .comment       0x0000000000000057       0x13 /opt/Xuantie-900-gcc-elf-newlib-x86_64-V2.8.1/bin/../lib/gcc/riscv64-unknown-elf/10.4.0/../../../../riscv64-unknown-elf/lib/rv64imafdc/lp64d/libc.a(lib_a-memchr.o)
 .comment       0x0000000000000057       0x13 /opt/Xuantie-900-gcc-elf-newlib-x86_64-V2.8.1/bin/../lib/gcc/riscv64-unknown-elf/10.4.0/../../../../riscv64-unknown-elf/lib/rv64imafdc/lp64d/libc.a(lib_a-mprec.o)
 .comment       0x0000000000000057       0x13 /opt/Xuantie-900-gcc-elf-newlib-x86_64-V2.8.1/bin/../lib/gcc/riscv64-unknown-elf/10.4.0/../../../../riscv64-unknown-elf/lib/rv64imafdc/lp64d/libc.a(lib_a-s_frexp.o)
 .comment       0x0000000000000057       0x13 /opt/Xuantie-900-gcc-elf-newlib-x86_64-V2.8.1/bin/../lib/gcc/riscv64-unknown-elf/10.4.0/../../../../riscv64-unknown-elf/lib/rv64imafdc/lp64d/libc.a(lib_a-sprintf.o)
 .comment       0x0000000000000057       0x13 /opt/Xuantie-900-gcc-elf-newlib-x86_64-V2.8.1/bin/../lib/gcc/riscv64-unknown-elf/10.4.0/../../../../riscv64-unknown-elf/lib/rv64imafdc/lp64d/libc.a(lib_a-stdio.o)
 .comment       0x0000000000000057       0x13 /opt/Xuantie-900-gcc-elf-newlib-x86_64-V2.8.1/bin/../lib/gcc/riscv64-unknown-elf/10.4.0/../../../../riscv64-unknown-elf/lib/rv64imafdc/lp64d/libc.a(lib_a-svfprintf.o)
 .comment       0x0000000000000057       0x13 /opt/Xuantie-900-gcc-elf-newlib-x86_64-V2.8.1/bin/../lib/gcc/riscv64-unknown-elf/10.4.0/../../../../riscv64-unknown-elf/lib/rv64imafdc/lp64d/libc.a(lib_a-vfiprintf.o)
 .comment       0x0000000000000057       0x13 /opt/Xuantie-900-gcc-elf-newlib-x86_64-V2.8.1/bin/../lib/gcc/riscv64-unknown-elf/10.4.0/../../../../riscv64-unknown-elf/lib/rv64imafdc/lp64d/libc.a(lib_a-assert.o)
 .comment       0x0000000000000057       0x13 /opt/Xuantie-900-gcc-elf-newlib-x86_64-V2.8.1/bin/../lib/gcc/riscv64-unknown-elf/10.4.0/../../../../riscv64-unknown-elf/lib/rv64imafdc/lp64d/libc.a(lib_a-fclose.o)
 .comment       0x0000000000000057       0x13 /opt/Xuantie-900-gcc-elf-newlib-x86_64-V2.8.1/bin/../lib/gcc/riscv64-unknown-elf/10.4.0/../../../../riscv64-unknown-elf/lib/rv64imafdc/lp64d/libc.a(lib_a-fiprintf.o)
 .comment       0x0000000000000057       0x13 /opt/Xuantie-900-gcc-elf-newlib-x86_64-V2.8.1/bin/../lib/gcc/riscv64-unknown-elf/10.4.0/../../../../riscv64-unknown-elf/lib/rv64imafdc/lp64d/libc.a(lib_a-fputwc.o)
 .comment       0x0000000000000057       0x13 /opt/Xuantie-900-gcc-elf-newlib-x86_64-V2.8.1/bin/../lib/gcc/riscv64-unknown-elf/10.4.0/../../../../riscv64-unknown-elf/lib/rv64imafdc/lp64d/libc.a(lib_a-fvwrite.o)
 .comment       0x0000000000000057       0x13 /opt/Xuantie-900-gcc-elf-newlib-x86_64-V2.8.1/bin/../lib/gcc/riscv64-unknown-elf/10.4.0/../../../../riscv64-unknown-elf/lib/rv64imafdc/lp64d/libc.a(lib_a-locale.o)
 .comment       0x0000000000000057       0x13 /opt/Xuantie-900-gcc-elf-newlib-x86_64-V2.8.1/bin/../lib/gcc/riscv64-unknown-elf/10.4.0/../../../../riscv64-unknown-elf/lib/rv64imafdc/lp64d/libc.a(lib_a-mbtowc_r.o)
 .comment       0x0000000000000057       0x13 /opt/Xuantie-900-gcc-elf-newlib-x86_64-V2.8.1/bin/../lib/gcc/riscv64-unknown-elf/10.4.0/../../../../riscv64-unknown-elf/lib/rv64imafdc/lp64d/libc.a(lib_a-memmove-stub.o)
 .comment       0x0000000000000057       0x13 /opt/Xuantie-900-gcc-elf-newlib-x86_64-V2.8.1/bin/../lib/gcc/riscv64-unknown-elf/10.4.0/../../../../riscv64-unknown-elf/lib/rv64imafdc/lp64d/libc.a(lib_a-svfiprintf.o)
 .comment       0x0000000000000057       0x13 /opt/Xuantie-900-gcc-elf-newlib-x86_64-V2.8.1/bin/../lib/gcc/riscv64-unknown-elf/10.4.0/../../../../riscv64-unknown-elf/lib/rv64imafdc/lp64d/libc.a(lib_a-wbuf.o)
 .comment       0x0000000000000057       0x13 /opt/Xuantie-900-gcc-elf-newlib-x86_64-V2.8.1/bin/../lib/gcc/riscv64-unknown-elf/10.4.0/../../../../riscv64-unknown-elf/lib/rv64imafdc/lp64d/libc.a(lib_a-wcrtomb.o)
 .comment       0x0000000000000057       0x13 /opt/Xuantie-900-gcc-elf-newlib-x86_64-V2.8.1/bin/../lib/gcc/riscv64-unknown-elf/10.4.0/../../../../riscv64-unknown-elf/lib/rv64imafdc/lp64d/libc.a(lib_a-wctomb_r.o)
 .comment       0x0000000000000057       0x13 /opt/Xuantie-900-gcc-elf-newlib-x86_64-V2.8.1/bin/../lib/gcc/riscv64-unknown-elf/10.4.0/../../../../riscv64-unknown-elf/lib/rv64imafdc/lp64d/libc.a(lib_a-abort.o)
 .comment       0x0000000000000057       0x13 /opt/Xuantie-900-gcc-elf-newlib-x86_64-V2.8.1/bin/../lib/gcc/riscv64-unknown-elf/10.4.0/../../../../riscv64-unknown-elf/lib/rv64imafdc/lp64d/libc.a(lib_a-signal.o)
 .comment       0x0000000000000057       0x46 /opt/Xuantie-900-gcc-elf-newlib-x86_64-V2.8.1/bin/../lib/gcc/riscv64-unknown-elf/10.4.0/rv64imafdc/lp64d/libgcc.a(eqtf2.o)
 .comment       0x0000000000000057       0x46 /opt/Xuantie-900-gcc-elf-newlib-x86_64-V2.8.1/bin/../lib/gcc/riscv64-unknown-elf/10.4.0/rv64imafdc/lp64d/libgcc.a(getf2.o)
 .comment       0x0000000000000057       0x46 /opt/Xuantie-900-gcc-elf-newlib-x86_64-V2.8.1/bin/../lib/gcc/riscv64-unknown-elf/10.4.0/rv64imafdc/lp64d/libgcc.a(letf2.o)
 .comment       0x0000000000000057       0x46 /opt/Xuantie-900-gcc-elf-newlib-x86_64-V2.8.1/bin/../lib/gcc/riscv64-unknown-elf/10.4.0/rv64imafdc/lp64d/libgcc.a(multf3.o)
 .comment       0x0000000000000057       0x46 /opt/Xuantie-900-gcc-elf-newlib-x86_64-V2.8.1/bin/../lib/gcc/riscv64-unknown-elf/10.4.0/rv64imafdc/lp64d/libgcc.a(subtf3.o)
 .comment       0x0000000000000057       0x46 /opt/Xuantie-900-gcc-elf-newlib-x86_64-V2.8.1/bin/../lib/gcc/riscv64-unknown-elf/10.4.0/rv64imafdc/lp64d/libgcc.a(fixtfsi.o)
 .comment       0x0000000000000057       0x46 /opt/Xuantie-900-gcc-elf-newlib-x86_64-V2.8.1/bin/../lib/gcc/riscv64-unknown-elf/10.4.0/rv64imafdc/lp64d/libgcc.a(floatsitf.o)
 .comment       0x0000000000000057       0x46 /opt/Xuantie-900-gcc-elf-newlib-x86_64-V2.8.1/bin/../lib/gcc/riscv64-unknown-elf/10.4.0/rv64imafdc/lp64d/libgcc.a(extenddftf2.o)
 .comment       0x0000000000000057       0x46 /opt/Xuantie-900-gcc-elf-newlib-x86_64-V2.8.1/bin/../lib/gcc/riscv64-unknown-elf/10.4.0/rv64imafdc/lp64d/libgcc.a(trunctfdf2.o)
 .comment       0x0000000000000057       0x46 /opt/Xuantie-900-gcc-elf-newlib-x86_64-V2.8.1/bin/../lib/gcc/riscv64-unknown-elf/10.4.0/rv64imafdc/lp64d/libgcc.a(_clzsi2.o)
 .comment       0x0000000000000057       0x46 /opt/Xuantie-900-gcc-elf-newlib-x86_64-V2.8.1/bin/../lib/gcc/riscv64-unknown-elf/10.4.0/rv64imafdc/lp64d/libgcc.a(_clz.o)

.riscv.attributes
                0x0000000000000000       0x39
 .riscv.attributes
                0x0000000000000000       0x35 build/kernel/components/libc/compilers/common/cstdlib.o
 .riscv.attributes
                0x0000000000000035       0x35 build/kernel/components/libc/compilers/newlib/syscalls.o
 .riscv.attributes
                0x000000000000006a       0x37 build/kernel/libcpu/risc-v/common/context_gcc.o
 .riscv.attributes
                0x00000000000000a1       0x35 build/kernel/libcpu/risc-v/common/cpuport.o
 .riscv.attributes
                0x00000000000000d6       0x35 build/applications/main.o
 .riscv.attributes
                0x000000000000010b       0x35 build/board/board.o
 .riscv.attributes
                0x0000000000000140       0x35 build/board/board_uart.o
 .riscv.attributes
                0x0000000000000175       0x35 build/board/devices.o
 .riscv.attributes
                0x00000000000001aa       0x35 build/board/dw_uart_ll.o
 .riscv.attributes
                0x00000000000001df       0x35 build/board/interrupt.o
 .riscv.attributes
                0x0000000000000214       0x35 build/board/irq.o
 .riscv.attributes
                0x0000000000000249       0x39 build/board/irq_port.o
 .riscv.attributes
                0x0000000000000282       0x37 build/board/startup.o
 .riscv.attributes
                0x00000000000002b9       0x35 build/board/sys_clk.o
 .riscv.attributes
                0x00000000000002ee       0x39 build/board/system.o
 .riscv.attributes
                0x0000000000000327       0x35 build/board/target_get.o
 .riscv.attributes
                0x000000000000035c       0x39 build/board/tick.o
 .riscv.attributes
                0x0000000000000395       0x39 build/board/trap_c.o
 .riscv.attributes
                0x00000000000003ce       0x35 build/board/uart.o
 .riscv.attributes
                0x0000000000000403       0x37 build/board/vectors.o
 .riscv.attributes
                0x000000000000043a       0x35 build/kernel/components/drivers/core/device.o
 .riscv.attributes
                0x000000000000046f       0x35 build/kernel/components/drivers/cputime/cputime.o
 .riscv.attributes
                0x00000000000004a4       0x35 build/kernel/components/drivers/cputime/cputime_riscv.o
 .riscv.attributes
                0x00000000000004d9       0x35 build/kernel/components/drivers/ipc/completion_comm.o
 .riscv.attributes
                0x000000000000050e       0x35 build/kernel/components/drivers/ipc/completion_up.o
 .riscv.attributes
                0x0000000000000543       0x35 build/kernel/components/drivers/ipc/dataqueue.o
 .riscv.attributes
                0x0000000000000578       0x35 build/kernel/components/drivers/pin/pin.o
 .riscv.attributes
                0x00000000000005ad       0x35 build/kernel/components/drivers/serial/serial.o
 .riscv.attributes
                0x00000000000005e2       0x35 build/kernel/components/finsh/cmd.o
 .riscv.attributes
                0x0000000000000617       0x35 build/kernel/components/finsh/msh.o
 .riscv.attributes
                0x000000000000064c       0x35 build/kernel/components/finsh/msh_parse.o
 .riscv.attributes
                0x0000000000000681       0x35 build/kernel/components/finsh/shell.o
 .riscv.attributes
                0x00000000000006b6       0x35 build/kernel/src/clock.o
 .riscv.attributes
                0x00000000000006eb       0x35 build/kernel/src/components.o
 .riscv.attributes
                0x0000000000000720       0x35 build/kernel/src/cpu_up.o
 .riscv.attributes
                0x0000000000000755       0x35 build/kernel/src/idle.o
 .riscv.attributes
                0x000000000000078a       0x35 build/kernel/src/ipc.o
 .riscv.attributes
                0x00000000000007bf       0x35 build/kernel/src/irq.o
 .riscv.attributes
                0x00000000000007f4       0x35 build/kernel/src/klibc/kstdio.o
 .riscv.attributes
                0x0000000000000829       0x35 build/kernel/src/klibc/kstring.o
 .riscv.attributes
                0x000000000000085e       0x35 build/kernel/src/kservice.o
 .riscv.attributes
                0x0000000000000893       0x35 build/kernel/src/mem.o
 .riscv.attributes
                0x00000000000008c8       0x35 build/kernel/src/object.o
 .riscv.attributes
                0x00000000000008fd       0x35 build/kernel/src/scheduler_comm.o
 .riscv.attributes
                0x0000000000000932       0x35 build/kernel/src/scheduler_up.o
 .riscv.attributes
                0x0000000000000967       0x35 build/kernel/src/thread.o
 .riscv.attributes
                0x000000000000099c       0x35 build/kernel/src/timer.o
 .riscv.attributes
                0x00000000000009d1       0x35 /opt/Xuantie-900-gcc-elf-newlib-x86_64-V2.8.1/bin/../lib/gcc/riscv64-unknown-elf/10.4.0/../../../../riscv64-unknown-elf/lib/rv64imafdc/lp64d/libc.a(lib_a-atoi.o)
 .riscv.attributes
                0x0000000000000a06       0x35 /opt/Xuantie-900-gcc-elf-newlib-x86_64-V2.8.1/bin/../lib/gcc/riscv64-unknown-elf/10.4.0/../../../../riscv64-unknown-elf/lib/rv64imafdc/lp64d/libc.a(lib_a-ctype_.o)
 .riscv.attributes
                0x0000000000000a3b       0x35 /opt/Xuantie-900-gcc-elf-newlib-x86_64-V2.8.1/bin/../lib/gcc/riscv64-unknown-elf/10.4.0/../../../../riscv64-unknown-elf/lib/rv64imafdc/lp64d/libc.a(lib_a-memcmp.o)
 .riscv.attributes
                0x0000000000000a70       0x33 /opt/Xuantie-900-gcc-elf-newlib-x86_64-V2.8.1/bin/../lib/gcc/riscv64-unknown-elf/10.4.0/../../../../riscv64-unknown-elf/lib/rv64imafdc/lp64d/libc.a(lib_a-memset.o)
 .riscv.attributes
                0x0000000000000aa3       0x35 /opt/Xuantie-900-gcc-elf-newlib-x86_64-V2.8.1/bin/../lib/gcc/riscv64-unknown-elf/10.4.0/../../../../riscv64-unknown-elf/lib/rv64imafdc/lp64d/libc.a(lib_a-printf.o)
 .riscv.attributes
                0x0000000000000ad8       0x35 /opt/Xuantie-900-gcc-elf-newlib-x86_64-V2.8.1/bin/../lib/gcc/riscv64-unknown-elf/10.4.0/../../../../riscv64-unknown-elf/lib/rv64imafdc/lp64d/libc.a(lib_a-strchr.o)
 .riscv.attributes
                0x0000000000000b0d       0x33 /opt/Xuantie-900-gcc-elf-newlib-x86_64-V2.8.1/bin/../lib/gcc/riscv64-unknown-elf/10.4.0/../../../../riscv64-unknown-elf/lib/rv64imafdc/lp64d/libc.a(lib_a-strcmp.o)
 .riscv.attributes
                0x0000000000000b40       0x35 /opt/Xuantie-900-gcc-elf-newlib-x86_64-V2.8.1/bin/../lib/gcc/riscv64-unknown-elf/10.4.0/../../../../riscv64-unknown-elf/lib/rv64imafdc/lp64d/libc.a(lib_a-strcpy.o)
 .riscv.attributes
                0x0000000000000b75       0x35 /opt/Xuantie-900-gcc-elf-newlib-x86_64-V2.8.1/bin/../lib/gcc/riscv64-unknown-elf/10.4.0/../../../../riscv64-unknown-elf/lib/rv64imafdc/lp64d/libc.a(lib_a-strlen.o)
 .riscv.attributes
                0x0000000000000baa       0x35 /opt/Xuantie-900-gcc-elf-newlib-x86_64-V2.8.1/bin/../lib/gcc/riscv64-unknown-elf/10.4.0/../../../../riscv64-unknown-elf/lib/rv64imafdc/lp64d/libc.a(lib_a-strncmp.o)
 .riscv.attributes
                0x0000000000000bdf       0x35 /opt/Xuantie-900-gcc-elf-newlib-x86_64-V2.8.1/bin/../lib/gcc/riscv64-unknown-elf/10.4.0/../../../../riscv64-unknown-elf/lib/rv64imafdc/lp64d/libc.a(lib_a-strncpy.o)
 .riscv.attributes
                0x0000000000000c14       0x35 /opt/Xuantie-900-gcc-elf-newlib-x86_64-V2.8.1/bin/../lib/gcc/riscv64-unknown-elf/10.4.0/../../../../riscv64-unknown-elf/lib/rv64imafdc/lp64d/libc.a(lib_a-strtol.o)
 .riscv.attributes
                0x0000000000000c49       0x35 /opt/Xuantie-900-gcc-elf-newlib-x86_64-V2.8.1/bin/../lib/gcc/riscv64-unknown-elf/10.4.0/../../../../riscv64-unknown-elf/lib/rv64imafdc/lp64d/libc.a(lib_a-strtoul.o)
 .riscv.attributes
                0x0000000000000c7e       0x35 /opt/Xuantie-900-gcc-elf-newlib-x86_64-V2.8.1/bin/../lib/gcc/riscv64-unknown-elf/10.4.0/../../../../riscv64-unknown-elf/lib/rv64imafdc/lp64d/libc.a(lib_a-vfprintf.o)
 .riscv.attributes
                0x0000000000000cb3       0x35 /opt/Xuantie-900-gcc-elf-newlib-x86_64-V2.8.1/bin/../lib/gcc/riscv64-unknown-elf/10.4.0/../../../../riscv64-unknown-elf/lib/rv64imafdc/lp64d/libc.a(lib_a-wsetup.o)
 .riscv.attributes
                0x0000000000000ce8       0x35 /opt/Xuantie-900-gcc-elf-newlib-x86_64-V2.8.1/bin/../lib/gcc/riscv64-unknown-elf/10.4.0/../../../../riscv64-unknown-elf/lib/rv64imafdc/lp64d/libc.a(lib_a-fflush.o)
 .riscv.attributes
                0x0000000000000d1d       0x35 /opt/Xuantie-900-gcc-elf-newlib-x86_64-V2.8.1/bin/../lib/gcc/riscv64-unknown-elf/10.4.0/../../../../riscv64-unknown-elf/lib/rv64imafdc/lp64d/libc.a(lib_a-findfp.o)
 .riscv.attributes
                0x0000000000000d52       0x35 /opt/Xuantie-900-gcc-elf-newlib-x86_64-V2.8.1/bin/../lib/gcc/riscv64-unknown-elf/10.4.0/../../../../riscv64-unknown-elf/lib/rv64imafdc/lp64d/libc.a(lib_a-fwalk.o)
 .riscv.attributes
                0x0000000000000d87       0x35 /opt/Xuantie-900-gcc-elf-newlib-x86_64-V2.8.1/bin/../lib/gcc/riscv64-unknown-elf/10.4.0/../../../../riscv64-unknown-elf/lib/rv64imafdc/lp64d/libc.a(lib_a-impure.o)
 .riscv.attributes
                0x0000000000000dbc       0x35 /opt/Xuantie-900-gcc-elf-newlib-x86_64-V2.8.1/bin/../lib/gcc/riscv64-unknown-elf/10.4.0/../../../../riscv64-unknown-elf/lib/rv64imafdc/lp64d/libc.a(lib_a-ldtoa.o)
 .riscv.attributes
                0x0000000000000df1       0x35 /opt/Xuantie-900-gcc-elf-newlib-x86_64-V2.8.1/bin/../lib/gcc/riscv64-unknown-elf/10.4.0/../../../../riscv64-unknown-elf/lib/rv64imafdc/lp64d/libc.a(lib_a-localeconv.o)
 .riscv.attributes
                0x0000000000000e26       0x35 /opt/Xuantie-900-gcc-elf-newlib-x86_64-V2.8.1/bin/../lib/gcc/riscv64-unknown-elf/10.4.0/../../../../riscv64-unknown-elf/lib/rv64imafdc/lp64d/libc.a(lib_a-lock.o)
 .riscv.attributes
                0x0000000000000e5b       0x35 /opt/Xuantie-900-gcc-elf-newlib-x86_64-V2.8.1/bin/../lib/gcc/riscv64-unknown-elf/10.4.0/../../../../riscv64-unknown-elf/lib/rv64imafdc/lp64d/libc.a(lib_a-makebuf.o)
 .riscv.attributes
                0x0000000000000e90       0x35 /opt/Xuantie-900-gcc-elf-newlib-x86_64-V2.8.1/bin/../lib/gcc/riscv64-unknown-elf/10.4.0/../../../../riscv64-unknown-elf/lib/rv64imafdc/lp64d/libc.a(lib_a-memchr.o)
 .riscv.attributes
                0x0000000000000ec5       0x35 /opt/Xuantie-900-gcc-elf-newlib-x86_64-V2.8.1/bin/../lib/gcc/riscv64-unknown-elf/10.4.0/../../../../riscv64-unknown-elf/lib/rv64imafdc/lp64d/libc.a(lib_a-mprec.o)
 .riscv.attributes
                0x0000000000000efa       0x35 /opt/Xuantie-900-gcc-elf-newlib-x86_64-V2.8.1/bin/../lib/gcc/riscv64-unknown-elf/10.4.0/../../../../riscv64-unknown-elf/lib/rv64imafdc/lp64d/libc.a(lib_a-s_frexp.o)
 .riscv.attributes
                0x0000000000000f2f       0x35 /opt/Xuantie-900-gcc-elf-newlib-x86_64-V2.8.1/bin/../lib/gcc/riscv64-unknown-elf/10.4.0/../../../../riscv64-unknown-elf/lib/rv64imafdc/lp64d/libc.a(lib_a-sprintf.o)
 .riscv.attributes
                0x0000000000000f64       0x35 /opt/Xuantie-900-gcc-elf-newlib-x86_64-V2.8.1/bin/../lib/gcc/riscv64-unknown-elf/10.4.0/../../../../riscv64-unknown-elf/lib/rv64imafdc/lp64d/libc.a(lib_a-stdio.o)
 .riscv.attributes
                0x0000000000000f99       0x35 /opt/Xuantie-900-gcc-elf-newlib-x86_64-V2.8.1/bin/../lib/gcc/riscv64-unknown-elf/10.4.0/../../../../riscv64-unknown-elf/lib/rv64imafdc/lp64d/libc.a(lib_a-svfprintf.o)
 .riscv.attributes
                0x0000000000000fce       0x35 /opt/Xuantie-900-gcc-elf-newlib-x86_64-V2.8.1/bin/../lib/gcc/riscv64-unknown-elf/10.4.0/../../../../riscv64-unknown-elf/lib/rv64imafdc/lp64d/libc.a(lib_a-vfiprintf.o)
 .riscv.attributes
                0x0000000000001003       0x35 /opt/Xuantie-900-gcc-elf-newlib-x86_64-V2.8.1/bin/../lib/gcc/riscv64-unknown-elf/10.4.0/../../../../riscv64-unknown-elf/lib/rv64imafdc/lp64d/libc.a(lib_a-assert.o)
 .riscv.attributes
                0x0000000000001038       0x35 /opt/Xuantie-900-gcc-elf-newlib-x86_64-V2.8.1/bin/../lib/gcc/riscv64-unknown-elf/10.4.0/../../../../riscv64-unknown-elf/lib/rv64imafdc/lp64d/libc.a(lib_a-fclose.o)
 .riscv.attributes
                0x000000000000106d       0x35 /opt/Xuantie-900-gcc-elf-newlib-x86_64-V2.8.1/bin/../lib/gcc/riscv64-unknown-elf/10.4.0/../../../../riscv64-unknown-elf/lib/rv64imafdc/lp64d/libc.a(lib_a-fiprintf.o)
 .riscv.attributes
                0x00000000000010a2       0x35 /opt/Xuantie-900-gcc-elf-newlib-x86_64-V2.8.1/bin/../lib/gcc/riscv64-unknown-elf/10.4.0/../../../../riscv64-unknown-elf/lib/rv64imafdc/lp64d/libc.a(lib_a-fputwc.o)
 .riscv.attributes
                0x00000000000010d7       0x35 /opt/Xuantie-900-gcc-elf-newlib-x86_64-V2.8.1/bin/../lib/gcc/riscv64-unknown-elf/10.4.0/../../../../riscv64-unknown-elf/lib/rv64imafdc/lp64d/libc.a(lib_a-fvwrite.o)
 .riscv.attributes
                0x000000000000110c       0x35 /opt/Xuantie-900-gcc-elf-newlib-x86_64-V2.8.1/bin/../lib/gcc/riscv64-unknown-elf/10.4.0/../../../../riscv64-unknown-elf/lib/rv64imafdc/lp64d/libc.a(lib_a-locale.o)
 .riscv.attributes
                0x0000000000001141       0x35 /opt/Xuantie-900-gcc-elf-newlib-x86_64-V2.8.1/bin/../lib/gcc/riscv64-unknown-elf/10.4.0/../../../../riscv64-unknown-elf/lib/rv64imafdc/lp64d/libc.a(lib_a-mbtowc_r.o)
 .riscv.attributes
                0x0000000000001176       0x33 /opt/Xuantie-900-gcc-elf-newlib-x86_64-V2.8.1/bin/../lib/gcc/riscv64-unknown-elf/10.4.0/../../../../riscv64-unknown-elf/lib/rv64imafdc/lp64d/libc.a(lib_a-memcpy-asm.o)
 .riscv.attributes
                0x00000000000011a9       0x35 /opt/Xuantie-900-gcc-elf-newlib-x86_64-V2.8.1/bin/../lib/gcc/riscv64-unknown-elf/10.4.0/../../../../riscv64-unknown-elf/lib/rv64imafdc/lp64d/libc.a(lib_a-memmove-stub.o)
 .riscv.attributes
                0x00000000000011de       0x35 /opt/Xuantie-900-gcc-elf-newlib-x86_64-V2.8.1/bin/../lib/gcc/riscv64-unknown-elf/10.4.0/../../../../riscv64-unknown-elf/lib/rv64imafdc/lp64d/libc.a(lib_a-svfiprintf.o)
 .riscv.attributes
                0x0000000000001213       0x35 /opt/Xuantie-900-gcc-elf-newlib-x86_64-V2.8.1/bin/../lib/gcc/riscv64-unknown-elf/10.4.0/../../../../riscv64-unknown-elf/lib/rv64imafdc/lp64d/libc.a(lib_a-wbuf.o)
 .riscv.attributes
                0x0000000000001248       0x35 /opt/Xuantie-900-gcc-elf-newlib-x86_64-V2.8.1/bin/../lib/gcc/riscv64-unknown-elf/10.4.0/../../../../riscv64-unknown-elf/lib/rv64imafdc/lp64d/libc.a(lib_a-wcrtomb.o)
 .riscv.attributes
                0x000000000000127d       0x35 /opt/Xuantie-900-gcc-elf-newlib-x86_64-V2.8.1/bin/../lib/gcc/riscv64-unknown-elf/10.4.0/../../../../riscv64-unknown-elf/lib/rv64imafdc/lp64d/libc.a(lib_a-wctomb_r.o)
 .riscv.attributes
                0x00000000000012b2       0x35 /opt/Xuantie-900-gcc-elf-newlib-x86_64-V2.8.1/bin/../lib/gcc/riscv64-unknown-elf/10.4.0/../../../../riscv64-unknown-elf/lib/rv64imafdc/lp64d/libc.a(lib_a-abort.o)
 .riscv.attributes
                0x00000000000012e7       0x35 /opt/Xuantie-900-gcc-elf-newlib-x86_64-V2.8.1/bin/../lib/gcc/riscv64-unknown-elf/10.4.0/../../../../riscv64-unknown-elf/lib/rv64imafdc/lp64d/libc.a(lib_a-signal.o)
 .riscv.attributes
                0x000000000000131c       0x39 /opt/Xuantie-900-gcc-elf-newlib-x86_64-V2.8.1/bin/../lib/gcc/riscv64-unknown-elf/10.4.0/rv64imafdc/lp64d/libgcc.a(eqtf2.o)
 .riscv.attributes
                0x0000000000001355       0x39 /opt/Xuantie-900-gcc-elf-newlib-x86_64-V2.8.1/bin/../lib/gcc/riscv64-unknown-elf/10.4.0/rv64imafdc/lp64d/libgcc.a(getf2.o)
 .riscv.attributes
                0x000000000000138e       0x39 /opt/Xuantie-900-gcc-elf-newlib-x86_64-V2.8.1/bin/../lib/gcc/riscv64-unknown-elf/10.4.0/rv64imafdc/lp64d/libgcc.a(letf2.o)
 .riscv.attributes
                0x00000000000013c7       0x39 /opt/Xuantie-900-gcc-elf-newlib-x86_64-V2.8.1/bin/../lib/gcc/riscv64-unknown-elf/10.4.0/rv64imafdc/lp64d/libgcc.a(multf3.o)
 .riscv.attributes
                0x0000000000001400       0x39 /opt/Xuantie-900-gcc-elf-newlib-x86_64-V2.8.1/bin/../lib/gcc/riscv64-unknown-elf/10.4.0/rv64imafdc/lp64d/libgcc.a(subtf3.o)
 .riscv.attributes
                0x0000000000001439       0x39 /opt/Xuantie-900-gcc-elf-newlib-x86_64-V2.8.1/bin/../lib/gcc/riscv64-unknown-elf/10.4.0/rv64imafdc/lp64d/libgcc.a(fixtfsi.o)
 .riscv.attributes
                0x0000000000001472       0x35 /opt/Xuantie-900-gcc-elf-newlib-x86_64-V2.8.1/bin/../lib/gcc/riscv64-unknown-elf/10.4.0/rv64imafdc/lp64d/libgcc.a(floatsitf.o)
 .riscv.attributes
                0x00000000000014a7       0x39 /opt/Xuantie-900-gcc-elf-newlib-x86_64-V2.8.1/bin/../lib/gcc/riscv64-unknown-elf/10.4.0/rv64imafdc/lp64d/libgcc.a(extenddftf2.o)
 .riscv.attributes
                0x00000000000014e0       0x39 /opt/Xuantie-900-gcc-elf-newlib-x86_64-V2.8.1/bin/../lib/gcc/riscv64-unknown-elf/10.4.0/rv64imafdc/lp64d/libgcc.a(trunctfdf2.o)
 .riscv.attributes
                0x0000000000001519       0x35 /opt/Xuantie-900-gcc-elf-newlib-x86_64-V2.8.1/bin/../lib/gcc/riscv64-unknown-elf/10.4.0/rv64imafdc/lp64d/libgcc.a(_clzsi2.o)
 .riscv.attributes
                0x000000000000154e       0x35 /opt/Xuantie-900-gcc-elf-newlib-x86_64-V2.8.1/bin/../lib/gcc/riscv64-unknown-elf/10.4.0/rv64imafdc/lp64d/libgcc.a(_clz.o)

.debug_frame    0x0000000000000000     0x5a88
 .debug_frame   0x0000000000000000       0xf0 build/kernel/components/libc/compilers/common/cstdlib.o
 .debug_frame   0x00000000000000f0      0x3a0 build/kernel/components/libc/compilers/newlib/syscalls.o
 .debug_frame   0x0000000000000490       0x70 build/kernel/libcpu/risc-v/common/cpuport.o
 .debug_frame   0x0000000000000500       0x38 build/applications/main.o
 .debug_frame   0x0000000000000538       0x50 build/board/board.o
 .debug_frame   0x0000000000000588       0xb0 build/board/board_uart.o
 .debug_frame   0x0000000000000638      0x158 build/board/dw_uart_ll.o
 .debug_frame   0x0000000000000790       0xd0 build/board/interrupt.o
 .debug_frame   0x0000000000000860       0xc8 build/board/irq.o
 .debug_frame   0x0000000000000928       0xa0 build/board/irq_port.o
 .debug_frame   0x00000000000009c8      0x100 build/board/sys_clk.o
 .debug_frame   0x0000000000000ac8       0x38 build/board/system.o
 .debug_frame   0x0000000000000b00       0xb0 build/board/target_get.o
 .debug_frame   0x0000000000000bb0      0x188 build/board/tick.o
 .debug_frame   0x0000000000000d38       0x60 build/board/trap_c.o
 .debug_frame   0x0000000000000d98      0x498 build/board/uart.o
 .debug_frame   0x0000000000001230      0x308 build/kernel/components/drivers/core/device.o
 .debug_frame   0x0000000000001538      0x148 build/kernel/components/drivers/cputime/cputime.o
 .debug_frame   0x0000000000001680       0x68 build/kernel/components/drivers/cputime/cputime_riscv.o
 .debug_frame   0x00000000000016e8       0x58 build/kernel/components/drivers/ipc/completion_comm.o
 .debug_frame   0x0000000000001740       0xe0 build/kernel/components/drivers/ipc/completion_up.o
 .debug_frame   0x0000000000001820      0x1c8 build/kernel/components/drivers/ipc/dataqueue.o
 .debug_frame   0x00000000000019e8      0x318 build/kernel/components/drivers/pin/pin.o
 .debug_frame   0x0000000000001d00      0x2d0 build/kernel/components/drivers/serial/serial.o
 .debug_frame   0x0000000000001fd0      0x3e8 build/kernel/components/finsh/cmd.o
 .debug_frame   0x00000000000023b8      0x2b0 build/kernel/components/finsh/msh.o
 .debug_frame   0x0000000000002668       0x58 build/kernel/components/finsh/msh_parse.o
 .debug_frame   0x00000000000026c0      0x2f0 build/kernel/components/finsh/shell.o
 .debug_frame   0x00000000000029b0      0x110 build/kernel/src/clock.o
 .debug_frame   0x0000000000002ac0      0x188 build/kernel/src/components.o
 .debug_frame   0x0000000000002c48       0xd8 build/kernel/src/cpu_up.o
 .debug_frame   0x0000000000002d20      0x150 build/kernel/src/idle.o
 .debug_frame   0x0000000000002e70      0xe48 build/kernel/src/ipc.o
 .debug_frame   0x0000000000003cb8       0xe0 build/kernel/src/irq.o
 .debug_frame   0x0000000000003d98      0x1b8 build/kernel/src/klibc/kstdio.o
 .debug_frame   0x0000000000003f50      0x178 build/kernel/src/klibc/kstring.o
 .debug_frame   0x00000000000040c8      0x5c0 build/kernel/src/kservice.o
 .debug_frame   0x0000000000004688      0x180 build/kernel/src/mem.o
 .debug_frame   0x0000000000004808      0x3c8 build/kernel/src/object.o
 .debug_frame   0x0000000000004bd0      0x1e0 build/kernel/src/scheduler_comm.o
 .debug_frame   0x0000000000004db0      0x2a8 build/kernel/src/scheduler_up.o
 .debug_frame   0x0000000000005058      0x4d8 build/kernel/src/thread.o
 .debug_frame   0x0000000000005530      0x338 build/kernel/src/timer.o
 .debug_frame   0x0000000000005868       0x28 /opt/Xuantie-900-gcc-elf-newlib-x86_64-V2.8.1/bin/../lib/gcc/riscv64-unknown-elf/10.4.0/rv64imafdc/lp64d/libgcc.a(eqtf2.o)
 .debug_frame   0x0000000000005890       0x28 /opt/Xuantie-900-gcc-elf-newlib-x86_64-V2.8.1/bin/../lib/gcc/riscv64-unknown-elf/10.4.0/rv64imafdc/lp64d/libgcc.a(getf2.o)
 .debug_frame   0x00000000000058b8       0x28 /opt/Xuantie-900-gcc-elf-newlib-x86_64-V2.8.1/bin/../lib/gcc/riscv64-unknown-elf/10.4.0/rv64imafdc/lp64d/libgcc.a(letf2.o)
 .debug_frame   0x00000000000058e0       0x60 /opt/Xuantie-900-gcc-elf-newlib-x86_64-V2.8.1/bin/../lib/gcc/riscv64-unknown-elf/10.4.0/rv64imafdc/lp64d/libgcc.a(multf3.o)
 .debug_frame   0x0000000000005940       0x50 /opt/Xuantie-900-gcc-elf-newlib-x86_64-V2.8.1/bin/../lib/gcc/riscv64-unknown-elf/10.4.0/rv64imafdc/lp64d/libgcc.a(subtf3.o)
 .debug_frame   0x0000000000005990       0x28 /opt/Xuantie-900-gcc-elf-newlib-x86_64-V2.8.1/bin/../lib/gcc/riscv64-unknown-elf/10.4.0/rv64imafdc/lp64d/libgcc.a(fixtfsi.o)
 .debug_frame   0x00000000000059b8       0x40 /opt/Xuantie-900-gcc-elf-newlib-x86_64-V2.8.1/bin/../lib/gcc/riscv64-unknown-elf/10.4.0/rv64imafdc/lp64d/libgcc.a(floatsitf.o)
 .debug_frame   0x00000000000059f8       0x40 /opt/Xuantie-900-gcc-elf-newlib-x86_64-V2.8.1/bin/../lib/gcc/riscv64-unknown-elf/10.4.0/rv64imafdc/lp64d/libgcc.a(extenddftf2.o)
 .debug_frame   0x0000000000005a38       0x28 /opt/Xuantie-900-gcc-elf-newlib-x86_64-V2.8.1/bin/../lib/gcc/riscv64-unknown-elf/10.4.0/rv64imafdc/lp64d/libgcc.a(trunctfdf2.o)
 .debug_frame   0x0000000000005a60       0x28 /opt/Xuantie-900-gcc-elf-newlib-x86_64-V2.8.1/bin/../lib/gcc/riscv64-unknown-elf/10.4.0/rv64imafdc/lp64d/libgcc.a(_clzsi2.o)

Cross Reference Table

Symbol                                            File
CORET_IRQHandler                                  build/board/irq.o
Default_Handler                                   build/board/vectors.o
                                                  build/board/startup.o
                                                  build/board/irq.o
Mcoret_Handler                                    build/board/vectors.o
                                                  build/board/startup.o
Mirq_Handler                                      build/board/vectors.o
                                                  build/board/startup.o
Mtspend_Handler                                   build/board/vectors.o
                                                  build/board/startup.o
Reset_Handler                                     build/board/startup.o
SW_handler                                        build/kernel/libcpu/risc-v/common/interrupt_gcc.o
Scoret_Handler                                    build/board/vectors.o
                                                  build/board/startup.o
Sirq_Handler                                      build/board/vectors.o
                                                  build/board/startup.o
Stspend_Handler                                   build/board/vectors.o
                                                  build/board/startup.o
SystemInit                                        build/board/system.o
                                                  build/board/startup.o
_Balloc                                           /opt/Xuantie-900-gcc-elf-newlib-x86_64-V2.8.1/bin/../lib/gcc/riscv64-unknown-elf/10.4.0/../../../../riscv64-unknown-elf/lib/rv64imafdc/lp64d/libc.a(lib_a-mprec.o)
                                                  /opt/Xuantie-900-gcc-elf-newlib-x86_64-V2.8.1/bin/../lib/gcc/riscv64-unknown-elf/10.4.0/../../../../riscv64-unknown-elf/lib/rv64imafdc/lp64d/libc.a(lib_a-ldtoa.o)
_Bfree                                            /opt/Xuantie-900-gcc-elf-newlib-x86_64-V2.8.1/bin/../lib/gcc/riscv64-unknown-elf/10.4.0/../../../../riscv64-unknown-elf/lib/rv64imafdc/lp64d/libc.a(lib_a-mprec.o)
                                                  /opt/Xuantie-900-gcc-elf-newlib-x86_64-V2.8.1/bin/../lib/gcc/riscv64-unknown-elf/10.4.0/../../../../riscv64-unknown-elf/lib/rv64imafdc/lp64d/libc.a(lib_a-ldtoa.o)
_PathLocale                                       /opt/Xuantie-900-gcc-elf-newlib-x86_64-V2.8.1/bin/../lib/gcc/riscv64-unknown-elf/10.4.0/../../../../riscv64-unknown-elf/lib/rv64imafdc/lp64d/libc.a(lib_a-locale.o)
__Vectors                                         build/board/startup.o
__any_on                                          /opt/Xuantie-900-gcc-elf-newlib-x86_64-V2.8.1/bin/../lib/gcc/riscv64-unknown-elf/10.4.0/../../../../riscv64-unknown-elf/lib/rv64imafdc/lp64d/libc.a(lib_a-mprec.o)
__ascii_mbtowc                                    /opt/Xuantie-900-gcc-elf-newlib-x86_64-V2.8.1/bin/../lib/gcc/riscv64-unknown-elf/10.4.0/../../../../riscv64-unknown-elf/lib/rv64imafdc/lp64d/libc.a(lib_a-mbtowc_r.o)
                                                  /opt/Xuantie-900-gcc-elf-newlib-x86_64-V2.8.1/bin/../lib/gcc/riscv64-unknown-elf/10.4.0/../../../../riscv64-unknown-elf/lib/rv64imafdc/lp64d/libc.a(lib_a-locale.o)
__ascii_wctomb                                    /opt/Xuantie-900-gcc-elf-newlib-x86_64-V2.8.1/bin/../lib/gcc/riscv64-unknown-elf/10.4.0/../../../../riscv64-unknown-elf/lib/rv64imafdc/lp64d/libc.a(lib_a-wctomb_r.o)
                                                  /opt/Xuantie-900-gcc-elf-newlib-x86_64-V2.8.1/bin/../lib/gcc/riscv64-unknown-elf/10.4.0/../../../../riscv64-unknown-elf/lib/rv64imafdc/lp64d/libc.a(lib_a-locale.o)
__assert                                          /opt/Xuantie-900-gcc-elf-newlib-x86_64-V2.8.1/bin/../lib/gcc/riscv64-unknown-elf/10.4.0/../../../../riscv64-unknown-elf/lib/rv64imafdc/lp64d/libc.a(lib_a-assert.o)
__assert_func                                     /opt/Xuantie-900-gcc-elf-newlib-x86_64-V2.8.1/bin/../lib/gcc/riscv64-unknown-elf/10.4.0/../../../../riscv64-unknown-elf/lib/rv64imafdc/lp64d/libc.a(lib_a-assert.o)
                                                  /opt/Xuantie-900-gcc-elf-newlib-x86_64-V2.8.1/bin/../lib/gcc/riscv64-unknown-elf/10.4.0/../../../../riscv64-unknown-elf/lib/rv64imafdc/lp64d/libc.a(lib_a-mprec.o)
__b2d                                             /opt/Xuantie-900-gcc-elf-newlib-x86_64-V2.8.1/bin/../lib/gcc/riscv64-unknown-elf/10.4.0/../../../../riscv64-unknown-elf/lib/rv64imafdc/lp64d/libc.a(lib_a-mprec.o)
__bss_end__                                       build/board/board.o
__bss_start__                                     build/board/board.o
__clz_tab                                         /opt/Xuantie-900-gcc-elf-newlib-x86_64-V2.8.1/bin/../lib/gcc/riscv64-unknown-elf/10.4.0/rv64imafdc/lp64d/libgcc.a(_clz.o)
                                                  /opt/Xuantie-900-gcc-elf-newlib-x86_64-V2.8.1/bin/../lib/gcc/riscv64-unknown-elf/10.4.0/rv64imafdc/lp64d/libgcc.a(_clzsi2.o)
__clzdi2                                          /opt/Xuantie-900-gcc-elf-newlib-x86_64-V2.8.1/bin/../lib/gcc/riscv64-unknown-elf/10.4.0/rv64imafdc/lp64d/libgcc.a(_clzsi2.o)
                                                  /opt/Xuantie-900-gcc-elf-newlib-x86_64-V2.8.1/bin/../lib/gcc/riscv64-unknown-elf/10.4.0/rv64imafdc/lp64d/libgcc.a(extenddftf2.o)
                                                  /opt/Xuantie-900-gcc-elf-newlib-x86_64-V2.8.1/bin/../lib/gcc/riscv64-unknown-elf/10.4.0/rv64imafdc/lp64d/libgcc.a(floatsitf.o)
                                                  /opt/Xuantie-900-gcc-elf-newlib-x86_64-V2.8.1/bin/../lib/gcc/riscv64-unknown-elf/10.4.0/rv64imafdc/lp64d/libgcc.a(subtf3.o)
                                                  /opt/Xuantie-900-gcc-elf-newlib-x86_64-V2.8.1/bin/../lib/gcc/riscv64-unknown-elf/10.4.0/rv64imafdc/lp64d/libgcc.a(multf3.o)
__copybits                                        /opt/Xuantie-900-gcc-elf-newlib-x86_64-V2.8.1/bin/../lib/gcc/riscv64-unknown-elf/10.4.0/../../../../riscv64-unknown-elf/lib/rv64imafdc/lp64d/libc.a(lib_a-mprec.o)
__d2b                                             /opt/Xuantie-900-gcc-elf-newlib-x86_64-V2.8.1/bin/../lib/gcc/riscv64-unknown-elf/10.4.0/../../../../riscv64-unknown-elf/lib/rv64imafdc/lp64d/libc.a(lib_a-mprec.o)
__eqtf2                                           /opt/Xuantie-900-gcc-elf-newlib-x86_64-V2.8.1/bin/../lib/gcc/riscv64-unknown-elf/10.4.0/rv64imafdc/lp64d/libgcc.a(eqtf2.o)
                                                  /opt/Xuantie-900-gcc-elf-newlib-x86_64-V2.8.1/bin/../lib/gcc/riscv64-unknown-elf/10.4.0/../../../../riscv64-unknown-elf/lib/rv64imafdc/lp64d/libc.a(lib_a-svfprintf.o)
                                                  /opt/Xuantie-900-gcc-elf-newlib-x86_64-V2.8.1/bin/../lib/gcc/riscv64-unknown-elf/10.4.0/../../../../riscv64-unknown-elf/lib/rv64imafdc/lp64d/libc.a(lib_a-vfprintf.o)
__errno                                           build/kernel/components/libc/compilers/newlib/syscalls.o
                                                  /opt/Xuantie-900-gcc-elf-newlib-x86_64-V2.8.1/bin/../lib/gcc/riscv64-unknown-elf/10.4.0/../../../../riscv64-unknown-elf/lib/rv64imafdc/lp64d/libc.a(lib_a-strtol.o)
__extenddftf2                                     /opt/Xuantie-900-gcc-elf-newlib-x86_64-V2.8.1/bin/../lib/gcc/riscv64-unknown-elf/10.4.0/rv64imafdc/lp64d/libgcc.a(extenddftf2.o)
                                                  /opt/Xuantie-900-gcc-elf-newlib-x86_64-V2.8.1/bin/../lib/gcc/riscv64-unknown-elf/10.4.0/../../../../riscv64-unknown-elf/lib/rv64imafdc/lp64d/libc.a(lib_a-svfprintf.o)
                                                  /opt/Xuantie-900-gcc-elf-newlib-x86_64-V2.8.1/bin/../lib/gcc/riscv64-unknown-elf/10.4.0/../../../../riscv64-unknown-elf/lib/rv64imafdc/lp64d/libc.a(lib_a-vfprintf.o)
__fixtfsi                                         /opt/Xuantie-900-gcc-elf-newlib-x86_64-V2.8.1/bin/../lib/gcc/riscv64-unknown-elf/10.4.0/rv64imafdc/lp64d/libgcc.a(fixtfsi.o)
                                                  /opt/Xuantie-900-gcc-elf-newlib-x86_64-V2.8.1/bin/../lib/gcc/riscv64-unknown-elf/10.4.0/../../../../riscv64-unknown-elf/lib/rv64imafdc/lp64d/libc.a(lib_a-svfprintf.o)
                                                  /opt/Xuantie-900-gcc-elf-newlib-x86_64-V2.8.1/bin/../lib/gcc/riscv64-unknown-elf/10.4.0/../../../../riscv64-unknown-elf/lib/rv64imafdc/lp64d/libc.a(lib_a-vfprintf.o)
__floatsitf                                       /opt/Xuantie-900-gcc-elf-newlib-x86_64-V2.8.1/bin/../lib/gcc/riscv64-unknown-elf/10.4.0/rv64imafdc/lp64d/libgcc.a(floatsitf.o)
                                                  /opt/Xuantie-900-gcc-elf-newlib-x86_64-V2.8.1/bin/../lib/gcc/riscv64-unknown-elf/10.4.0/../../../../riscv64-unknown-elf/lib/rv64imafdc/lp64d/libc.a(lib_a-svfprintf.o)
                                                  /opt/Xuantie-900-gcc-elf-newlib-x86_64-V2.8.1/bin/../lib/gcc/riscv64-unknown-elf/10.4.0/../../../../riscv64-unknown-elf/lib/rv64imafdc/lp64d/libc.a(lib_a-vfprintf.o)
__fp_lock_all                                     /opt/Xuantie-900-gcc-elf-newlib-x86_64-V2.8.1/bin/../lib/gcc/riscv64-unknown-elf/10.4.0/../../../../riscv64-unknown-elf/lib/rv64imafdc/lp64d/libc.a(lib_a-findfp.o)
__fp_unlock_all                                   /opt/Xuantie-900-gcc-elf-newlib-x86_64-V2.8.1/bin/../lib/gcc/riscv64-unknown-elf/10.4.0/../../../../riscv64-unknown-elf/lib/rv64imafdc/lp64d/libc.a(lib_a-findfp.o)
__fputwc                                          /opt/Xuantie-900-gcc-elf-newlib-x86_64-V2.8.1/bin/../lib/gcc/riscv64-unknown-elf/10.4.0/../../../../riscv64-unknown-elf/lib/rv64imafdc/lp64d/libc.a(lib_a-fputwc.o)
__fsym_backtrace                                  build/kernel/src/kservice.o
__fsym_backtrace_desc                             build/kernel/src/kservice.o
__fsym_backtrace_name                             build/kernel/src/kservice.o
__fsym_clear                                      build/kernel/components/finsh/cmd.o
__fsym_clear_desc                                 build/kernel/components/finsh/cmd.o
__fsym_clear_name                                 build/kernel/components/finsh/cmd.o
__fsym_free                                       build/kernel/components/finsh/msh.o
__fsym_free_desc                                  build/kernel/components/finsh/msh.o
__fsym_free_name                                  build/kernel/components/finsh/msh.o
__fsym_help                                       build/kernel/components/finsh/msh.o
__fsym_help_desc                                  build/kernel/components/finsh/msh.o
__fsym_help_name                                  build/kernel/components/finsh/msh.o
__fsym_list                                       build/kernel/components/finsh/cmd.o
__fsym_list_desc                                  build/kernel/components/finsh/cmd.o
__fsym_list_name                                  build/kernel/components/finsh/cmd.o
__fsym_pin                                        build/kernel/components/drivers/pin/pin.o
__fsym_pin_desc                                   build/kernel/components/drivers/pin/pin.o
__fsym_pin_name                                   build/kernel/components/drivers/pin/pin.o
__fsym_ps                                         build/kernel/components/finsh/msh.o
__fsym_ps_desc                                    build/kernel/components/finsh/msh.o
__fsym_ps_name                                    build/kernel/components/finsh/msh.o
__fsym_version                                    build/kernel/components/finsh/cmd.o
__fsym_version_desc                               build/kernel/components/finsh/cmd.o
__fsym_version_name                               build/kernel/components/finsh/cmd.o
__fsymtab_end                                     build/kernel/components/finsh/shell.o
__fsymtab_start                                   build/kernel/components/finsh/shell.o
__getf2                                           /opt/Xuantie-900-gcc-elf-newlib-x86_64-V2.8.1/bin/../lib/gcc/riscv64-unknown-elf/10.4.0/rv64imafdc/lp64d/libgcc.a(getf2.o)
__global_locale                                   /opt/Xuantie-900-gcc-elf-newlib-x86_64-V2.8.1/bin/../lib/gcc/riscv64-unknown-elf/10.4.0/../../../../riscv64-unknown-elf/lib/rv64imafdc/lp64d/libc.a(lib_a-locale.o)
                                                  /opt/Xuantie-900-gcc-elf-newlib-x86_64-V2.8.1/bin/../lib/gcc/riscv64-unknown-elf/10.4.0/../../../../riscv64-unknown-elf/lib/rv64imafdc/lp64d/libc.a(lib_a-wctomb_r.o)
                                                  /opt/Xuantie-900-gcc-elf-newlib-x86_64-V2.8.1/bin/../lib/gcc/riscv64-unknown-elf/10.4.0/../../../../riscv64-unknown-elf/lib/rv64imafdc/lp64d/libc.a(lib_a-wcrtomb.o)
                                                  /opt/Xuantie-900-gcc-elf-newlib-x86_64-V2.8.1/bin/../lib/gcc/riscv64-unknown-elf/10.4.0/../../../../riscv64-unknown-elf/lib/rv64imafdc/lp64d/libc.a(lib_a-mbtowc_r.o)
                                                  /opt/Xuantie-900-gcc-elf-newlib-x86_64-V2.8.1/bin/../lib/gcc/riscv64-unknown-elf/10.4.0/../../../../riscv64-unknown-elf/lib/rv64imafdc/lp64d/libc.a(lib_a-localeconv.o)
__global_pointer$                                 build/board/startup.o
__gttf2                                           /opt/Xuantie-900-gcc-elf-newlib-x86_64-V2.8.1/bin/../lib/gcc/riscv64-unknown-elf/10.4.0/rv64imafdc/lp64d/libgcc.a(getf2.o)
                                                  /opt/Xuantie-900-gcc-elf-newlib-x86_64-V2.8.1/bin/../lib/gcc/riscv64-unknown-elf/10.4.0/../../../../riscv64-unknown-elf/lib/rv64imafdc/lp64d/libc.a(lib_a-svfprintf.o)
                                                  /opt/Xuantie-900-gcc-elf-newlib-x86_64-V2.8.1/bin/../lib/gcc/riscv64-unknown-elf/10.4.0/../../../../riscv64-unknown-elf/lib/rv64imafdc/lp64d/libc.a(lib_a-vfprintf.o)
__heap_end                                        build/board/board.o
__heap_start                                      build/board/board.o
__hi0bits                                         /opt/Xuantie-900-gcc-elf-newlib-x86_64-V2.8.1/bin/../lib/gcc/riscv64-unknown-elf/10.4.0/../../../../riscv64-unknown-elf/lib/rv64imafdc/lp64d/libc.a(lib_a-mprec.o)
__i2b                                             /opt/Xuantie-900-gcc-elf-newlib-x86_64-V2.8.1/bin/../lib/gcc/riscv64-unknown-elf/10.4.0/../../../../riscv64-unknown-elf/lib/rv64imafdc/lp64d/libc.a(lib_a-mprec.o)
__letf2                                           /opt/Xuantie-900-gcc-elf-newlib-x86_64-V2.8.1/bin/../lib/gcc/riscv64-unknown-elf/10.4.0/rv64imafdc/lp64d/libgcc.a(letf2.o)
__libc_init_array                                 build/kernel/components/libc/compilers/newlib/syscalls.o
__lo0bits                                         /opt/Xuantie-900-gcc-elf-newlib-x86_64-V2.8.1/bin/../lib/gcc/riscv64-unknown-elf/10.4.0/../../../../riscv64-unknown-elf/lib/rv64imafdc/lp64d/libc.a(lib_a-mprec.o)
__locale_mb_cur_max                               /opt/Xuantie-900-gcc-elf-newlib-x86_64-V2.8.1/bin/../lib/gcc/riscv64-unknown-elf/10.4.0/../../../../riscv64-unknown-elf/lib/rv64imafdc/lp64d/libc.a(lib_a-locale.o)
                                                  /opt/Xuantie-900-gcc-elf-newlib-x86_64-V2.8.1/bin/../lib/gcc/riscv64-unknown-elf/10.4.0/../../../../riscv64-unknown-elf/lib/rv64imafdc/lp64d/libc.a(lib_a-fputwc.o)
__localeconv_l                                    /opt/Xuantie-900-gcc-elf-newlib-x86_64-V2.8.1/bin/../lib/gcc/riscv64-unknown-elf/10.4.0/../../../../riscv64-unknown-elf/lib/rv64imafdc/lp64d/libc.a(lib_a-localeconv.o)
__lock___arc4random_mutex                         /opt/Xuantie-900-gcc-elf-newlib-x86_64-V2.8.1/bin/../lib/gcc/riscv64-unknown-elf/10.4.0/../../../../riscv64-unknown-elf/lib/rv64imafdc/lp64d/libc.a(lib_a-lock.o)
__lock___at_quick_exit_mutex                      /opt/Xuantie-900-gcc-elf-newlib-x86_64-V2.8.1/bin/../lib/gcc/riscv64-unknown-elf/10.4.0/../../../../riscv64-unknown-elf/lib/rv64imafdc/lp64d/libc.a(lib_a-lock.o)
__lock___atexit_recursive_mutex                   /opt/Xuantie-900-gcc-elf-newlib-x86_64-V2.8.1/bin/../lib/gcc/riscv64-unknown-elf/10.4.0/../../../../riscv64-unknown-elf/lib/rv64imafdc/lp64d/libc.a(lib_a-lock.o)
__lock___dd_hash_mutex                            /opt/Xuantie-900-gcc-elf-newlib-x86_64-V2.8.1/bin/../lib/gcc/riscv64-unknown-elf/10.4.0/../../../../riscv64-unknown-elf/lib/rv64imafdc/lp64d/libc.a(lib_a-lock.o)
__lock___env_recursive_mutex                      /opt/Xuantie-900-gcc-elf-newlib-x86_64-V2.8.1/bin/../lib/gcc/riscv64-unknown-elf/10.4.0/../../../../riscv64-unknown-elf/lib/rv64imafdc/lp64d/libc.a(lib_a-lock.o)
__lock___malloc_recursive_mutex                   /opt/Xuantie-900-gcc-elf-newlib-x86_64-V2.8.1/bin/../lib/gcc/riscv64-unknown-elf/10.4.0/../../../../riscv64-unknown-elf/lib/rv64imafdc/lp64d/libc.a(lib_a-lock.o)
__lock___sfp_recursive_mutex                      /opt/Xuantie-900-gcc-elf-newlib-x86_64-V2.8.1/bin/../lib/gcc/riscv64-unknown-elf/10.4.0/../../../../riscv64-unknown-elf/lib/rv64imafdc/lp64d/libc.a(lib_a-lock.o)
                                                  /opt/Xuantie-900-gcc-elf-newlib-x86_64-V2.8.1/bin/../lib/gcc/riscv64-unknown-elf/10.4.0/../../../../riscv64-unknown-elf/lib/rv64imafdc/lp64d/libc.a(lib_a-findfp.o)
__lock___sinit_recursive_mutex                    /opt/Xuantie-900-gcc-elf-newlib-x86_64-V2.8.1/bin/../lib/gcc/riscv64-unknown-elf/10.4.0/../../../../riscv64-unknown-elf/lib/rv64imafdc/lp64d/libc.a(lib_a-lock.o)
                                                  /opt/Xuantie-900-gcc-elf-newlib-x86_64-V2.8.1/bin/../lib/gcc/riscv64-unknown-elf/10.4.0/../../../../riscv64-unknown-elf/lib/rv64imafdc/lp64d/libc.a(lib_a-findfp.o)
__lock___tz_mutex                                 /opt/Xuantie-900-gcc-elf-newlib-x86_64-V2.8.1/bin/../lib/gcc/riscv64-unknown-elf/10.4.0/../../../../riscv64-unknown-elf/lib/rv64imafdc/lp64d/libc.a(lib_a-lock.o)
__lowest_bit_bitmap                               build/kernel/src/kservice.o
__lshift                                          /opt/Xuantie-900-gcc-elf-newlib-x86_64-V2.8.1/bin/../lib/gcc/riscv64-unknown-elf/10.4.0/../../../../riscv64-unknown-elf/lib/rv64imafdc/lp64d/libc.a(lib_a-mprec.o)
__lttf2                                           /opt/Xuantie-900-gcc-elf-newlib-x86_64-V2.8.1/bin/../lib/gcc/riscv64-unknown-elf/10.4.0/rv64imafdc/lp64d/libgcc.a(letf2.o)
                                                  /opt/Xuantie-900-gcc-elf-newlib-x86_64-V2.8.1/bin/../lib/gcc/riscv64-unknown-elf/10.4.0/../../../../riscv64-unknown-elf/lib/rv64imafdc/lp64d/libc.a(lib_a-svfprintf.o)
                                                  /opt/Xuantie-900-gcc-elf-newlib-x86_64-V2.8.1/bin/../lib/gcc/riscv64-unknown-elf/10.4.0/../../../../riscv64-unknown-elf/lib/rv64imafdc/lp64d/libc.a(lib_a-vfprintf.o)
__mcmp                                            /opt/Xuantie-900-gcc-elf-newlib-x86_64-V2.8.1/bin/../lib/gcc/riscv64-unknown-elf/10.4.0/../../../../riscv64-unknown-elf/lib/rv64imafdc/lp64d/libc.a(lib_a-mprec.o)
__mdiff                                           /opt/Xuantie-900-gcc-elf-newlib-x86_64-V2.8.1/bin/../lib/gcc/riscv64-unknown-elf/10.4.0/../../../../riscv64-unknown-elf/lib/rv64imafdc/lp64d/libc.a(lib_a-mprec.o)
__mprec_bigtens                                   /opt/Xuantie-900-gcc-elf-newlib-x86_64-V2.8.1/bin/../lib/gcc/riscv64-unknown-elf/10.4.0/../../../../riscv64-unknown-elf/lib/rv64imafdc/lp64d/libc.a(lib_a-mprec.o)
__mprec_tens                                      /opt/Xuantie-900-gcc-elf-newlib-x86_64-V2.8.1/bin/../lib/gcc/riscv64-unknown-elf/10.4.0/../../../../riscv64-unknown-elf/lib/rv64imafdc/lp64d/libc.a(lib_a-mprec.o)
__mprec_tinytens                                  /opt/Xuantie-900-gcc-elf-newlib-x86_64-V2.8.1/bin/../lib/gcc/riscv64-unknown-elf/10.4.0/../../../../riscv64-unknown-elf/lib/rv64imafdc/lp64d/libc.a(lib_a-mprec.o)
__multadd                                         /opt/Xuantie-900-gcc-elf-newlib-x86_64-V2.8.1/bin/../lib/gcc/riscv64-unknown-elf/10.4.0/../../../../riscv64-unknown-elf/lib/rv64imafdc/lp64d/libc.a(lib_a-mprec.o)
__multf3                                          /opt/Xuantie-900-gcc-elf-newlib-x86_64-V2.8.1/bin/../lib/gcc/riscv64-unknown-elf/10.4.0/rv64imafdc/lp64d/libgcc.a(multf3.o)
                                                  /opt/Xuantie-900-gcc-elf-newlib-x86_64-V2.8.1/bin/../lib/gcc/riscv64-unknown-elf/10.4.0/../../../../riscv64-unknown-elf/lib/rv64imafdc/lp64d/libc.a(lib_a-svfprintf.o)
                                                  /opt/Xuantie-900-gcc-elf-newlib-x86_64-V2.8.1/bin/../lib/gcc/riscv64-unknown-elf/10.4.0/../../../../riscv64-unknown-elf/lib/rv64imafdc/lp64d/libc.a(lib_a-vfprintf.o)
__multiply                                        /opt/Xuantie-900-gcc-elf-newlib-x86_64-V2.8.1/bin/../lib/gcc/riscv64-unknown-elf/10.4.0/../../../../riscv64-unknown-elf/lib/rv64imafdc/lp64d/libc.a(lib_a-mprec.o)
__netf2                                           /opt/Xuantie-900-gcc-elf-newlib-x86_64-V2.8.1/bin/../lib/gcc/riscv64-unknown-elf/10.4.0/rv64imafdc/lp64d/libgcc.a(eqtf2.o)
                                                  /opt/Xuantie-900-gcc-elf-newlib-x86_64-V2.8.1/bin/../lib/gcc/riscv64-unknown-elf/10.4.0/../../../../riscv64-unknown-elf/lib/rv64imafdc/lp64d/libc.a(lib_a-svfprintf.o)
                                                  /opt/Xuantie-900-gcc-elf-newlib-x86_64-V2.8.1/bin/../lib/gcc/riscv64-unknown-elf/10.4.0/../../../../riscv64-unknown-elf/lib/rv64imafdc/lp64d/libc.a(lib_a-vfprintf.o)
__pow5mult                                        /opt/Xuantie-900-gcc-elf-newlib-x86_64-V2.8.1/bin/../lib/gcc/riscv64-unknown-elf/10.4.0/../../../../riscv64-unknown-elf/lib/rv64imafdc/lp64d/libc.a(lib_a-mprec.o)
__ratio                                           /opt/Xuantie-900-gcc-elf-newlib-x86_64-V2.8.1/bin/../lib/gcc/riscv64-unknown-elf/10.4.0/../../../../riscv64-unknown-elf/lib/rv64imafdc/lp64d/libc.a(lib_a-mprec.o)
__retarget_lock_acquire                           /opt/Xuantie-900-gcc-elf-newlib-x86_64-V2.8.1/bin/../lib/gcc/riscv64-unknown-elf/10.4.0/../../../../riscv64-unknown-elf/lib/rv64imafdc/lp64d/libc.a(lib_a-lock.o)
__retarget_lock_acquire_recursive                 /opt/Xuantie-900-gcc-elf-newlib-x86_64-V2.8.1/bin/../lib/gcc/riscv64-unknown-elf/10.4.0/../../../../riscv64-unknown-elf/lib/rv64imafdc/lp64d/libc.a(lib_a-lock.o)
                                                  /opt/Xuantie-900-gcc-elf-newlib-x86_64-V2.8.1/bin/../lib/gcc/riscv64-unknown-elf/10.4.0/../../../../riscv64-unknown-elf/lib/rv64imafdc/lp64d/libc.a(lib_a-fputwc.o)
                                                  /opt/Xuantie-900-gcc-elf-newlib-x86_64-V2.8.1/bin/../lib/gcc/riscv64-unknown-elf/10.4.0/../../../../riscv64-unknown-elf/lib/rv64imafdc/lp64d/libc.a(lib_a-fclose.o)
                                                  /opt/Xuantie-900-gcc-elf-newlib-x86_64-V2.8.1/bin/../lib/gcc/riscv64-unknown-elf/10.4.0/../../../../riscv64-unknown-elf/lib/rv64imafdc/lp64d/libc.a(lib_a-vfiprintf.o)
                                                  /opt/Xuantie-900-gcc-elf-newlib-x86_64-V2.8.1/bin/../lib/gcc/riscv64-unknown-elf/10.4.0/../../../../riscv64-unknown-elf/lib/rv64imafdc/lp64d/libc.a(lib_a-findfp.o)
                                                  /opt/Xuantie-900-gcc-elf-newlib-x86_64-V2.8.1/bin/../lib/gcc/riscv64-unknown-elf/10.4.0/../../../../riscv64-unknown-elf/lib/rv64imafdc/lp64d/libc.a(lib_a-fflush.o)
                                                  /opt/Xuantie-900-gcc-elf-newlib-x86_64-V2.8.1/bin/../lib/gcc/riscv64-unknown-elf/10.4.0/../../../../riscv64-unknown-elf/lib/rv64imafdc/lp64d/libc.a(lib_a-vfprintf.o)
__retarget_lock_close                             /opt/Xuantie-900-gcc-elf-newlib-x86_64-V2.8.1/bin/../lib/gcc/riscv64-unknown-elf/10.4.0/../../../../riscv64-unknown-elf/lib/rv64imafdc/lp64d/libc.a(lib_a-lock.o)
__retarget_lock_close_recursive                   /opt/Xuantie-900-gcc-elf-newlib-x86_64-V2.8.1/bin/../lib/gcc/riscv64-unknown-elf/10.4.0/../../../../riscv64-unknown-elf/lib/rv64imafdc/lp64d/libc.a(lib_a-lock.o)
                                                  /opt/Xuantie-900-gcc-elf-newlib-x86_64-V2.8.1/bin/../lib/gcc/riscv64-unknown-elf/10.4.0/../../../../riscv64-unknown-elf/lib/rv64imafdc/lp64d/libc.a(lib_a-fclose.o)
                                                  /opt/Xuantie-900-gcc-elf-newlib-x86_64-V2.8.1/bin/../lib/gcc/riscv64-unknown-elf/10.4.0/../../../../riscv64-unknown-elf/lib/rv64imafdc/lp64d/libc.a(lib_a-vfiprintf.o)
                                                  /opt/Xuantie-900-gcc-elf-newlib-x86_64-V2.8.1/bin/../lib/gcc/riscv64-unknown-elf/10.4.0/../../../../riscv64-unknown-elf/lib/rv64imafdc/lp64d/libc.a(lib_a-vfprintf.o)
__retarget_lock_init                              /opt/Xuantie-900-gcc-elf-newlib-x86_64-V2.8.1/bin/../lib/gcc/riscv64-unknown-elf/10.4.0/../../../../riscv64-unknown-elf/lib/rv64imafdc/lp64d/libc.a(lib_a-lock.o)
__retarget_lock_init_recursive                    /opt/Xuantie-900-gcc-elf-newlib-x86_64-V2.8.1/bin/../lib/gcc/riscv64-unknown-elf/10.4.0/../../../../riscv64-unknown-elf/lib/rv64imafdc/lp64d/libc.a(lib_a-lock.o)
                                                  /opt/Xuantie-900-gcc-elf-newlib-x86_64-V2.8.1/bin/../lib/gcc/riscv64-unknown-elf/10.4.0/../../../../riscv64-unknown-elf/lib/rv64imafdc/lp64d/libc.a(lib_a-vfiprintf.o)
                                                  /opt/Xuantie-900-gcc-elf-newlib-x86_64-V2.8.1/bin/../lib/gcc/riscv64-unknown-elf/10.4.0/../../../../riscv64-unknown-elf/lib/rv64imafdc/lp64d/libc.a(lib_a-findfp.o)
                                                  /opt/Xuantie-900-gcc-elf-newlib-x86_64-V2.8.1/bin/../lib/gcc/riscv64-unknown-elf/10.4.0/../../../../riscv64-unknown-elf/lib/rv64imafdc/lp64d/libc.a(lib_a-vfprintf.o)
__retarget_lock_release                           /opt/Xuantie-900-gcc-elf-newlib-x86_64-V2.8.1/bin/../lib/gcc/riscv64-unknown-elf/10.4.0/../../../../riscv64-unknown-elf/lib/rv64imafdc/lp64d/libc.a(lib_a-lock.o)
__retarget_lock_release_recursive                 /opt/Xuantie-900-gcc-elf-newlib-x86_64-V2.8.1/bin/../lib/gcc/riscv64-unknown-elf/10.4.0/../../../../riscv64-unknown-elf/lib/rv64imafdc/lp64d/libc.a(lib_a-lock.o)
                                                  /opt/Xuantie-900-gcc-elf-newlib-x86_64-V2.8.1/bin/../lib/gcc/riscv64-unknown-elf/10.4.0/../../../../riscv64-unknown-elf/lib/rv64imafdc/lp64d/libc.a(lib_a-fputwc.o)
                                                  /opt/Xuantie-900-gcc-elf-newlib-x86_64-V2.8.1/bin/../lib/gcc/riscv64-unknown-elf/10.4.0/../../../../riscv64-unknown-elf/lib/rv64imafdc/lp64d/libc.a(lib_a-fclose.o)
                                                  /opt/Xuantie-900-gcc-elf-newlib-x86_64-V2.8.1/bin/../lib/gcc/riscv64-unknown-elf/10.4.0/../../../../riscv64-unknown-elf/lib/rv64imafdc/lp64d/libc.a(lib_a-vfiprintf.o)
                                                  /opt/Xuantie-900-gcc-elf-newlib-x86_64-V2.8.1/bin/../lib/gcc/riscv64-unknown-elf/10.4.0/../../../../riscv64-unknown-elf/lib/rv64imafdc/lp64d/libc.a(lib_a-findfp.o)
                                                  /opt/Xuantie-900-gcc-elf-newlib-x86_64-V2.8.1/bin/../lib/gcc/riscv64-unknown-elf/10.4.0/../../../../riscv64-unknown-elf/lib/rv64imafdc/lp64d/libc.a(lib_a-fflush.o)
                                                  /opt/Xuantie-900-gcc-elf-newlib-x86_64-V2.8.1/bin/../lib/gcc/riscv64-unknown-elf/10.4.0/../../../../riscv64-unknown-elf/lib/rv64imafdc/lp64d/libc.a(lib_a-vfprintf.o)
__retarget_lock_try_acquire                       /opt/Xuantie-900-gcc-elf-newlib-x86_64-V2.8.1/bin/../lib/gcc/riscv64-unknown-elf/10.4.0/../../../../riscv64-unknown-elf/lib/rv64imafdc/lp64d/libc.a(lib_a-lock.o)
__retarget_lock_try_acquire_recursive             /opt/Xuantie-900-gcc-elf-newlib-x86_64-V2.8.1/bin/../lib/gcc/riscv64-unknown-elf/10.4.0/../../../../riscv64-unknown-elf/lib/rv64imafdc/lp64d/libc.a(lib_a-lock.o)
__rt_ffs                                          build/kernel/src/kservice.o
                                                  build/kernel/src/scheduler_up.o
__rt_init_finsh_system_init                       build/kernel/components/finsh/shell.o
__rt_init_riscv_cputime_init                      build/kernel/components/drivers/cputime/cputime_riscv.o
__rt_init_rti_board_end                           build/kernel/src/components.o
__rt_init_rti_board_start                         build/kernel/src/components.o
__rt_init_rti_end                                 build/kernel/src/components.o
__rt_init_rti_start                               build/kernel/src/components.o
__rt_libc_exit                                    build/kernel/components/libc/compilers/common/cstdlib.o
                                                  build/kernel/components/libc/compilers/newlib/syscalls.o
__rt_rvstack                                      build/kernel/libcpu/risc-v/common/context_gcc.o
__s2b                                             /opt/Xuantie-900-gcc-elf-newlib-x86_64-V2.8.1/bin/../lib/gcc/riscv64-unknown-elf/10.4.0/../../../../riscv64-unknown-elf/lib/rv64imafdc/lp64d/libc.a(lib_a-mprec.o)
__sclose                                          /opt/Xuantie-900-gcc-elf-newlib-x86_64-V2.8.1/bin/../lib/gcc/riscv64-unknown-elf/10.4.0/../../../../riscv64-unknown-elf/lib/rv64imafdc/lp64d/libc.a(lib_a-stdio.o)
                                                  /opt/Xuantie-900-gcc-elf-newlib-x86_64-V2.8.1/bin/../lib/gcc/riscv64-unknown-elf/10.4.0/../../../../riscv64-unknown-elf/lib/rv64imafdc/lp64d/libc.a(lib_a-findfp.o)
__seofread                                        /opt/Xuantie-900-gcc-elf-newlib-x86_64-V2.8.1/bin/../lib/gcc/riscv64-unknown-elf/10.4.0/../../../../riscv64-unknown-elf/lib/rv64imafdc/lp64d/libc.a(lib_a-stdio.o)
__sflush_r                                        /opt/Xuantie-900-gcc-elf-newlib-x86_64-V2.8.1/bin/../lib/gcc/riscv64-unknown-elf/10.4.0/../../../../riscv64-unknown-elf/lib/rv64imafdc/lp64d/libc.a(lib_a-fflush.o)
                                                  /opt/Xuantie-900-gcc-elf-newlib-x86_64-V2.8.1/bin/../lib/gcc/riscv64-unknown-elf/10.4.0/../../../../riscv64-unknown-elf/lib/rv64imafdc/lp64d/libc.a(lib_a-fclose.o)
__sfmoreglue                                      /opt/Xuantie-900-gcc-elf-newlib-x86_64-V2.8.1/bin/../lib/gcc/riscv64-unknown-elf/10.4.0/../../../../riscv64-unknown-elf/lib/rv64imafdc/lp64d/libc.a(lib_a-findfp.o)
__sfp                                             /opt/Xuantie-900-gcc-elf-newlib-x86_64-V2.8.1/bin/../lib/gcc/riscv64-unknown-elf/10.4.0/../../../../riscv64-unknown-elf/lib/rv64imafdc/lp64d/libc.a(lib_a-findfp.o)
__sfp_lock_acquire                                /opt/Xuantie-900-gcc-elf-newlib-x86_64-V2.8.1/bin/../lib/gcc/riscv64-unknown-elf/10.4.0/../../../../riscv64-unknown-elf/lib/rv64imafdc/lp64d/libc.a(lib_a-findfp.o)
                                                  /opt/Xuantie-900-gcc-elf-newlib-x86_64-V2.8.1/bin/../lib/gcc/riscv64-unknown-elf/10.4.0/../../../../riscv64-unknown-elf/lib/rv64imafdc/lp64d/libc.a(lib_a-fclose.o)
__sfp_lock_release                                /opt/Xuantie-900-gcc-elf-newlib-x86_64-V2.8.1/bin/../lib/gcc/riscv64-unknown-elf/10.4.0/../../../../riscv64-unknown-elf/lib/rv64imafdc/lp64d/libc.a(lib_a-findfp.o)
                                                  /opt/Xuantie-900-gcc-elf-newlib-x86_64-V2.8.1/bin/../lib/gcc/riscv64-unknown-elf/10.4.0/../../../../riscv64-unknown-elf/lib/rv64imafdc/lp64d/libc.a(lib_a-fclose.o)
__sfvwrite_r                                      /opt/Xuantie-900-gcc-elf-newlib-x86_64-V2.8.1/bin/../lib/gcc/riscv64-unknown-elf/10.4.0/../../../../riscv64-unknown-elf/lib/rv64imafdc/lp64d/libc.a(lib_a-fvwrite.o)
                                                  /opt/Xuantie-900-gcc-elf-newlib-x86_64-V2.8.1/bin/../lib/gcc/riscv64-unknown-elf/10.4.0/../../../../riscv64-unknown-elf/lib/rv64imafdc/lp64d/libc.a(lib_a-vfiprintf.o)
__sigtramp                                        /opt/Xuantie-900-gcc-elf-newlib-x86_64-V2.8.1/bin/../lib/gcc/riscv64-unknown-elf/10.4.0/../../../../riscv64-unknown-elf/lib/rv64imafdc/lp64d/libc.a(lib_a-signal.o)
__sigtramp_r                                      /opt/Xuantie-900-gcc-elf-newlib-x86_64-V2.8.1/bin/../lib/gcc/riscv64-unknown-elf/10.4.0/../../../../riscv64-unknown-elf/lib/rv64imafdc/lp64d/libc.a(lib_a-signal.o)
__sinit                                           /opt/Xuantie-900-gcc-elf-newlib-x86_64-V2.8.1/bin/../lib/gcc/riscv64-unknown-elf/10.4.0/../../../../riscv64-unknown-elf/lib/rv64imafdc/lp64d/libc.a(lib_a-findfp.o)
                                                  /opt/Xuantie-900-gcc-elf-newlib-x86_64-V2.8.1/bin/../lib/gcc/riscv64-unknown-elf/10.4.0/../../../../riscv64-unknown-elf/lib/rv64imafdc/lp64d/libc.a(lib_a-wbuf.o)
                                                  /opt/Xuantie-900-gcc-elf-newlib-x86_64-V2.8.1/bin/../lib/gcc/riscv64-unknown-elf/10.4.0/../../../../riscv64-unknown-elf/lib/rv64imafdc/lp64d/libc.a(lib_a-fputwc.o)
                                                  /opt/Xuantie-900-gcc-elf-newlib-x86_64-V2.8.1/bin/../lib/gcc/riscv64-unknown-elf/10.4.0/../../../../riscv64-unknown-elf/lib/rv64imafdc/lp64d/libc.a(lib_a-fclose.o)
                                                  /opt/Xuantie-900-gcc-elf-newlib-x86_64-V2.8.1/bin/../lib/gcc/riscv64-unknown-elf/10.4.0/../../../../riscv64-unknown-elf/lib/rv64imafdc/lp64d/libc.a(lib_a-vfiprintf.o)
                                                  /opt/Xuantie-900-gcc-elf-newlib-x86_64-V2.8.1/bin/../lib/gcc/riscv64-unknown-elf/10.4.0/../../../../riscv64-unknown-elf/lib/rv64imafdc/lp64d/libc.a(lib_a-fflush.o)
                                                  /opt/Xuantie-900-gcc-elf-newlib-x86_64-V2.8.1/bin/../lib/gcc/riscv64-unknown-elf/10.4.0/../../../../riscv64-unknown-elf/lib/rv64imafdc/lp64d/libc.a(lib_a-wsetup.o)
                                                  /opt/Xuantie-900-gcc-elf-newlib-x86_64-V2.8.1/bin/../lib/gcc/riscv64-unknown-elf/10.4.0/../../../../riscv64-unknown-elf/lib/rv64imafdc/lp64d/libc.a(lib_a-vfprintf.o)
__sinit_lock_acquire                              /opt/Xuantie-900-gcc-elf-newlib-x86_64-V2.8.1/bin/../lib/gcc/riscv64-unknown-elf/10.4.0/../../../../riscv64-unknown-elf/lib/rv64imafdc/lp64d/libc.a(lib_a-findfp.o)
__sinit_lock_release                              /opt/Xuantie-900-gcc-elf-newlib-x86_64-V2.8.1/bin/../lib/gcc/riscv64-unknown-elf/10.4.0/../../../../riscv64-unknown-elf/lib/rv64imafdc/lp64d/libc.a(lib_a-findfp.o)
__smakebuf_r                                      /opt/Xuantie-900-gcc-elf-newlib-x86_64-V2.8.1/bin/../lib/gcc/riscv64-unknown-elf/10.4.0/../../../../riscv64-unknown-elf/lib/rv64imafdc/lp64d/libc.a(lib_a-makebuf.o)
                                                  /opt/Xuantie-900-gcc-elf-newlib-x86_64-V2.8.1/bin/../lib/gcc/riscv64-unknown-elf/10.4.0/../../../../riscv64-unknown-elf/lib/rv64imafdc/lp64d/libc.a(lib_a-wsetup.o)
__sprint_r                                        /opt/Xuantie-900-gcc-elf-newlib-x86_64-V2.8.1/bin/../lib/gcc/riscv64-unknown-elf/10.4.0/../../../../riscv64-unknown-elf/lib/rv64imafdc/lp64d/libc.a(lib_a-vfiprintf.o)
                                                  /opt/Xuantie-900-gcc-elf-newlib-x86_64-V2.8.1/bin/../lib/gcc/riscv64-unknown-elf/10.4.0/../../../../riscv64-unknown-elf/lib/rv64imafdc/lp64d/libc.a(lib_a-vfprintf.o)
__sread                                           /opt/Xuantie-900-gcc-elf-newlib-x86_64-V2.8.1/bin/../lib/gcc/riscv64-unknown-elf/10.4.0/../../../../riscv64-unknown-elf/lib/rv64imafdc/lp64d/libc.a(lib_a-stdio.o)
                                                  /opt/Xuantie-900-gcc-elf-newlib-x86_64-V2.8.1/bin/../lib/gcc/riscv64-unknown-elf/10.4.0/../../../../riscv64-unknown-elf/lib/rv64imafdc/lp64d/libc.a(lib_a-findfp.o)
__sseek                                           /opt/Xuantie-900-gcc-elf-newlib-x86_64-V2.8.1/bin/../lib/gcc/riscv64-unknown-elf/10.4.0/../../../../riscv64-unknown-elf/lib/rv64imafdc/lp64d/libc.a(lib_a-stdio.o)
                                                  /opt/Xuantie-900-gcc-elf-newlib-x86_64-V2.8.1/bin/../lib/gcc/riscv64-unknown-elf/10.4.0/../../../../riscv64-unknown-elf/lib/rv64imafdc/lp64d/libc.a(lib_a-findfp.o)
__ssprint_r                                       /opt/Xuantie-900-gcc-elf-newlib-x86_64-V2.8.1/bin/../lib/gcc/riscv64-unknown-elf/10.4.0/../../../../riscv64-unknown-elf/lib/rv64imafdc/lp64d/libc.a(lib_a-svfiprintf.o)
                                                  /opt/Xuantie-900-gcc-elf-newlib-x86_64-V2.8.1/bin/../lib/gcc/riscv64-unknown-elf/10.4.0/../../../../riscv64-unknown-elf/lib/rv64imafdc/lp64d/libc.a(lib_a-svfprintf.o)
__subtf3                                          /opt/Xuantie-900-gcc-elf-newlib-x86_64-V2.8.1/bin/../lib/gcc/riscv64-unknown-elf/10.4.0/rv64imafdc/lp64d/libgcc.a(subtf3.o)
                                                  /opt/Xuantie-900-gcc-elf-newlib-x86_64-V2.8.1/bin/../lib/gcc/riscv64-unknown-elf/10.4.0/../../../../riscv64-unknown-elf/lib/rv64imafdc/lp64d/libc.a(lib_a-svfprintf.o)
                                                  /opt/Xuantie-900-gcc-elf-newlib-x86_64-V2.8.1/bin/../lib/gcc/riscv64-unknown-elf/10.4.0/../../../../riscv64-unknown-elf/lib/rv64imafdc/lp64d/libc.a(lib_a-vfprintf.o)
__swbuf                                           /opt/Xuantie-900-gcc-elf-newlib-x86_64-V2.8.1/bin/../lib/gcc/riscv64-unknown-elf/10.4.0/../../../../riscv64-unknown-elf/lib/rv64imafdc/lp64d/libc.a(lib_a-wbuf.o)
__swbuf_r                                         /opt/Xuantie-900-gcc-elf-newlib-x86_64-V2.8.1/bin/../lib/gcc/riscv64-unknown-elf/10.4.0/../../../../riscv64-unknown-elf/lib/rv64imafdc/lp64d/libc.a(lib_a-wbuf.o)
                                                  /opt/Xuantie-900-gcc-elf-newlib-x86_64-V2.8.1/bin/../lib/gcc/riscv64-unknown-elf/10.4.0/../../../../riscv64-unknown-elf/lib/rv64imafdc/lp64d/libc.a(lib_a-fputwc.o)
__swhatbuf_r                                      /opt/Xuantie-900-gcc-elf-newlib-x86_64-V2.8.1/bin/../lib/gcc/riscv64-unknown-elf/10.4.0/../../../../riscv64-unknown-elf/lib/rv64imafdc/lp64d/libc.a(lib_a-makebuf.o)
__swrite                                          /opt/Xuantie-900-gcc-elf-newlib-x86_64-V2.8.1/bin/../lib/gcc/riscv64-unknown-elf/10.4.0/../../../../riscv64-unknown-elf/lib/rv64imafdc/lp64d/libc.a(lib_a-stdio.o)
                                                  /opt/Xuantie-900-gcc-elf-newlib-x86_64-V2.8.1/bin/../lib/gcc/riscv64-unknown-elf/10.4.0/../../../../riscv64-unknown-elf/lib/rv64imafdc/lp64d/libc.a(lib_a-findfp.o)
__swsetup_r                                       /opt/Xuantie-900-gcc-elf-newlib-x86_64-V2.8.1/bin/../lib/gcc/riscv64-unknown-elf/10.4.0/../../../../riscv64-unknown-elf/lib/rv64imafdc/lp64d/libc.a(lib_a-wsetup.o)
                                                  /opt/Xuantie-900-gcc-elf-newlib-x86_64-V2.8.1/bin/../lib/gcc/riscv64-unknown-elf/10.4.0/../../../../riscv64-unknown-elf/lib/rv64imafdc/lp64d/libc.a(lib_a-wbuf.o)
                                                  /opt/Xuantie-900-gcc-elf-newlib-x86_64-V2.8.1/bin/../lib/gcc/riscv64-unknown-elf/10.4.0/../../../../riscv64-unknown-elf/lib/rv64imafdc/lp64d/libc.a(lib_a-fvwrite.o)
                                                  /opt/Xuantie-900-gcc-elf-newlib-x86_64-V2.8.1/bin/../lib/gcc/riscv64-unknown-elf/10.4.0/../../../../riscv64-unknown-elf/lib/rv64imafdc/lp64d/libc.a(lib_a-vfiprintf.o)
                                                  /opt/Xuantie-900-gcc-elf-newlib-x86_64-V2.8.1/bin/../lib/gcc/riscv64-unknown-elf/10.4.0/../../../../riscv64-unknown-elf/lib/rv64imafdc/lp64d/libc.a(lib_a-vfprintf.o)
__trunctfdf2                                      /opt/Xuantie-900-gcc-elf-newlib-x86_64-V2.8.1/bin/../lib/gcc/riscv64-unknown-elf/10.4.0/rv64imafdc/lp64d/libgcc.a(trunctfdf2.o)
                                                  /opt/Xuantie-900-gcc-elf-newlib-x86_64-V2.8.1/bin/../lib/gcc/riscv64-unknown-elf/10.4.0/../../../../riscv64-unknown-elf/lib/rv64imafdc/lp64d/libc.a(lib_a-svfprintf.o)
                                                  /opt/Xuantie-900-gcc-elf-newlib-x86_64-V2.8.1/bin/../lib/gcc/riscv64-unknown-elf/10.4.0/../../../../riscv64-unknown-elf/lib/rv64imafdc/lp64d/libc.a(lib_a-vfprintf.o)
__ulp                                             /opt/Xuantie-900-gcc-elf-newlib-x86_64-V2.8.1/bin/../lib/gcc/riscv64-unknown-elf/10.4.0/../../../../riscv64-unknown-elf/lib/rv64imafdc/lp64d/libc.a(lib_a-mprec.o)
__wqueue_default_wake                             build/kernel/components/drivers/ipc/waitqueue.o
                                                  build/kernel/components/drivers/ipc/condvar.o
_atoi_r                                           /opt/Xuantie-900-gcc-elf-newlib-x86_64-V2.8.1/bin/../lib/gcc/riscv64-unknown-elf/10.4.0/../../../../riscv64-unknown-elf/lib/rv64imafdc/lp64d/libc.a(lib_a-atoi.o)
_calloc_r                                         build/kernel/components/libc/compilers/newlib/syscalls.o
                                                  /opt/Xuantie-900-gcc-elf-newlib-x86_64-V2.8.1/bin/../lib/gcc/riscv64-unknown-elf/10.4.0/../../../../riscv64-unknown-elf/lib/rv64imafdc/lp64d/libc.a(lib_a-mprec.o)
_cleanup                                          /opt/Xuantie-900-gcc-elf-newlib-x86_64-V2.8.1/bin/../lib/gcc/riscv64-unknown-elf/10.4.0/../../../../riscv64-unknown-elf/lib/rv64imafdc/lp64d/libc.a(lib_a-findfp.o)
_cleanup_r                                        /opt/Xuantie-900-gcc-elf-newlib-x86_64-V2.8.1/bin/../lib/gcc/riscv64-unknown-elf/10.4.0/../../../../riscv64-unknown-elf/lib/rv64imafdc/lp64d/libc.a(lib_a-findfp.o)
                                                  /opt/Xuantie-900-gcc-elf-newlib-x86_64-V2.8.1/bin/../lib/gcc/riscv64-unknown-elf/10.4.0/../../../../riscv64-unknown-elf/lib/rv64imafdc/lp64d/libc.a(lib_a-makebuf.o)
_close_r                                          build/kernel/components/libc/compilers/newlib/syscalls.o
                                                  /opt/Xuantie-900-gcc-elf-newlib-x86_64-V2.8.1/bin/../lib/gcc/riscv64-unknown-elf/10.4.0/../../../../riscv64-unknown-elf/lib/rv64imafdc/lp64d/libc.a(lib_a-stdio.o)
_ctype_                                           /opt/Xuantie-900-gcc-elf-newlib-x86_64-V2.8.1/bin/../lib/gcc/riscv64-unknown-elf/10.4.0/../../../../riscv64-unknown-elf/lib/rv64imafdc/lp64d/libc.a(lib_a-ctype_.o)
                                                  /opt/Xuantie-900-gcc-elf-newlib-x86_64-V2.8.1/bin/../lib/gcc/riscv64-unknown-elf/10.4.0/../../../../riscv64-unknown-elf/lib/rv64imafdc/lp64d/libc.a(lib_a-locale.o)
                                                  /opt/Xuantie-900-gcc-elf-newlib-x86_64-V2.8.1/bin/../lib/gcc/riscv64-unknown-elf/10.4.0/../../../../riscv64-unknown-elf/lib/rv64imafdc/lp64d/libc.a(lib_a-strtoul.o)
                                                  /opt/Xuantie-900-gcc-elf-newlib-x86_64-V2.8.1/bin/../lib/gcc/riscv64-unknown-elf/10.4.0/../../../../riscv64-unknown-elf/lib/rv64imafdc/lp64d/libc.a(lib_a-strtol.o)
                                                  build/kernel/components/finsh/msh_parse.o
                                                  build/kernel/components/libc/compilers/common/cstring.o
_execve_r                                         build/kernel/components/libc/compilers/newlib/syscalls.o
_exit                                             build/kernel/components/libc/compilers/newlib/syscalls.o
                                                  /opt/Xuantie-900-gcc-elf-newlib-x86_64-V2.8.1/bin/../lib/gcc/riscv64-unknown-elf/10.4.0/../../../../riscv64-unknown-elf/lib/rv64imafdc/lp64d/libc.a(lib_a-abort.o)
_fclose_r                                         /opt/Xuantie-900-gcc-elf-newlib-x86_64-V2.8.1/bin/../lib/gcc/riscv64-unknown-elf/10.4.0/../../../../riscv64-unknown-elf/lib/rv64imafdc/lp64d/libc.a(lib_a-fclose.o)
                                                  /opt/Xuantie-900-gcc-elf-newlib-x86_64-V2.8.1/bin/../lib/gcc/riscv64-unknown-elf/10.4.0/../../../../riscv64-unknown-elf/lib/rv64imafdc/lp64d/libc.a(lib_a-findfp.o)
_fcntl_r                                          build/kernel/components/libc/compilers/newlib/syscalls.o
_fflush_r                                         /opt/Xuantie-900-gcc-elf-newlib-x86_64-V2.8.1/bin/../lib/gcc/riscv64-unknown-elf/10.4.0/../../../../riscv64-unknown-elf/lib/rv64imafdc/lp64d/libc.a(lib_a-fflush.o)
                                                  /opt/Xuantie-900-gcc-elf-newlib-x86_64-V2.8.1/bin/../lib/gcc/riscv64-unknown-elf/10.4.0/../../../../riscv64-unknown-elf/lib/rv64imafdc/lp64d/libc.a(lib_a-wbuf.o)
                                                  /opt/Xuantie-900-gcc-elf-newlib-x86_64-V2.8.1/bin/../lib/gcc/riscv64-unknown-elf/10.4.0/../../../../riscv64-unknown-elf/lib/rv64imafdc/lp64d/libc.a(lib_a-fvwrite.o)
                                                  /opt/Xuantie-900-gcc-elf-newlib-x86_64-V2.8.1/bin/../lib/gcc/riscv64-unknown-elf/10.4.0/../../../../riscv64-unknown-elf/lib/rv64imafdc/lp64d/libc.a(lib_a-vfiprintf.o)
                                                  /opt/Xuantie-900-gcc-elf-newlib-x86_64-V2.8.1/bin/../lib/gcc/riscv64-unknown-elf/10.4.0/../../../../riscv64-unknown-elf/lib/rv64imafdc/lp64d/libc.a(lib_a-vfprintf.o)
_fiprintf_r                                       /opt/Xuantie-900-gcc-elf-newlib-x86_64-V2.8.1/bin/../lib/gcc/riscv64-unknown-elf/10.4.0/../../../../riscv64-unknown-elf/lib/rv64imafdc/lp64d/libc.a(lib_a-fiprintf.o)
_fork_r                                           build/kernel/components/libc/compilers/newlib/syscalls.o
_fputwc_r                                         /opt/Xuantie-900-gcc-elf-newlib-x86_64-V2.8.1/bin/../lib/gcc/riscv64-unknown-elf/10.4.0/../../../../riscv64-unknown-elf/lib/rv64imafdc/lp64d/libc.a(lib_a-fputwc.o)
                                                  /opt/Xuantie-900-gcc-elf-newlib-x86_64-V2.8.1/bin/../lib/gcc/riscv64-unknown-elf/10.4.0/../../../../riscv64-unknown-elf/lib/rv64imafdc/lp64d/libc.a(lib_a-vfiprintf.o)
_free_r                                           build/kernel/components/libc/compilers/newlib/syscalls.o
                                                  /opt/Xuantie-900-gcc-elf-newlib-x86_64-V2.8.1/bin/../lib/gcc/riscv64-unknown-elf/10.4.0/../../../../riscv64-unknown-elf/lib/rv64imafdc/lp64d/libc.a(lib_a-svfiprintf.o)
                                                  /opt/Xuantie-900-gcc-elf-newlib-x86_64-V2.8.1/bin/../lib/gcc/riscv64-unknown-elf/10.4.0/../../../../riscv64-unknown-elf/lib/rv64imafdc/lp64d/libc.a(lib_a-fvwrite.o)
                                                  /opt/Xuantie-900-gcc-elf-newlib-x86_64-V2.8.1/bin/../lib/gcc/riscv64-unknown-elf/10.4.0/../../../../riscv64-unknown-elf/lib/rv64imafdc/lp64d/libc.a(lib_a-fclose.o)
                                                  /opt/Xuantie-900-gcc-elf-newlib-x86_64-V2.8.1/bin/../lib/gcc/riscv64-unknown-elf/10.4.0/../../../../riscv64-unknown-elf/lib/rv64imafdc/lp64d/libc.a(lib_a-svfprintf.o)
                                                  /opt/Xuantie-900-gcc-elf-newlib-x86_64-V2.8.1/bin/../lib/gcc/riscv64-unknown-elf/10.4.0/../../../../riscv64-unknown-elf/lib/rv64imafdc/lp64d/libc.a(lib_a-fflush.o)
                                                  /opt/Xuantie-900-gcc-elf-newlib-x86_64-V2.8.1/bin/../lib/gcc/riscv64-unknown-elf/10.4.0/../../../../riscv64-unknown-elf/lib/rv64imafdc/lp64d/libc.a(lib_a-wsetup.o)
                                                  /opt/Xuantie-900-gcc-elf-newlib-x86_64-V2.8.1/bin/../lib/gcc/riscv64-unknown-elf/10.4.0/../../../../riscv64-unknown-elf/lib/rv64imafdc/lp64d/libc.a(lib_a-vfprintf.o)
                                                  /opt/Xuantie-900-gcc-elf-newlib-x86_64-V2.8.1/bin/../lib/gcc/riscv64-unknown-elf/10.4.0/../../../../riscv64-unknown-elf/lib/rv64imafdc/lp64d/libc.a(lib_a-malloc.o)
_fstat_r                                          build/kernel/components/libc/compilers/newlib/syscalls.o
                                                  /opt/Xuantie-900-gcc-elf-newlib-x86_64-V2.8.1/bin/../lib/gcc/riscv64-unknown-elf/10.4.0/../../../../riscv64-unknown-elf/lib/rv64imafdc/lp64d/libc.a(lib_a-makebuf.o)
_fwalk                                            /opt/Xuantie-900-gcc-elf-newlib-x86_64-V2.8.1/bin/../lib/gcc/riscv64-unknown-elf/10.4.0/../../../../riscv64-unknown-elf/lib/rv64imafdc/lp64d/libc.a(lib_a-fwalk.o)
                                                  /opt/Xuantie-900-gcc-elf-newlib-x86_64-V2.8.1/bin/../lib/gcc/riscv64-unknown-elf/10.4.0/../../../../riscv64-unknown-elf/lib/rv64imafdc/lp64d/libc.a(lib_a-findfp.o)
_fwalk_reent                                      /opt/Xuantie-900-gcc-elf-newlib-x86_64-V2.8.1/bin/../lib/gcc/riscv64-unknown-elf/10.4.0/../../../../riscv64-unknown-elf/lib/rv64imafdc/lp64d/libc.a(lib_a-fwalk.o)
                                                  /opt/Xuantie-900-gcc-elf-newlib-x86_64-V2.8.1/bin/../lib/gcc/riscv64-unknown-elf/10.4.0/../../../../riscv64-unknown-elf/lib/rv64imafdc/lp64d/libc.a(lib_a-findfp.o)
                                                  /opt/Xuantie-900-gcc-elf-newlib-x86_64-V2.8.1/bin/../lib/gcc/riscv64-unknown-elf/10.4.0/../../../../riscv64-unknown-elf/lib/rv64imafdc/lp64d/libc.a(lib_a-fflush.o)
_getpid_r                                         build/kernel/components/libc/compilers/newlib/syscalls.o
                                                  /opt/Xuantie-900-gcc-elf-newlib-x86_64-V2.8.1/bin/../lib/gcc/riscv64-unknown-elf/10.4.0/../../../../riscv64-unknown-elf/lib/rv64imafdc/lp64d/libc.a(lib_a-signal.o)
_global_impure_ptr                                /opt/Xuantie-900-gcc-elf-newlib-x86_64-V2.8.1/bin/../lib/gcc/riscv64-unknown-elf/10.4.0/../../../../riscv64-unknown-elf/lib/rv64imafdc/lp64d/libc.a(lib_a-impure.o)
                                                  /opt/Xuantie-900-gcc-elf-newlib-x86_64-V2.8.1/bin/../lib/gcc/riscv64-unknown-elf/10.4.0/../../../../riscv64-unknown-elf/lib/rv64imafdc/lp64d/libc.a(lib_a-findfp.o)
                                                  /opt/Xuantie-900-gcc-elf-newlib-x86_64-V2.8.1/bin/../lib/gcc/riscv64-unknown-elf/10.4.0/../../../../riscv64-unknown-elf/lib/rv64imafdc/lp64d/libc.a(lib_a-fflush.o)
_impure_ptr                                       /opt/Xuantie-900-gcc-elf-newlib-x86_64-V2.8.1/bin/../lib/gcc/riscv64-unknown-elf/10.4.0/../../../../riscv64-unknown-elf/lib/rv64imafdc/lp64d/libc.a(lib_a-impure.o)
                                                  /opt/Xuantie-900-gcc-elf-newlib-x86_64-V2.8.1/bin/../lib/gcc/riscv64-unknown-elf/10.4.0/../../../../riscv64-unknown-elf/lib/rv64imafdc/lp64d/libc.a(lib_a-signal.o)
                                                  /opt/Xuantie-900-gcc-elf-newlib-x86_64-V2.8.1/bin/../lib/gcc/riscv64-unknown-elf/10.4.0/../../../../riscv64-unknown-elf/lib/rv64imafdc/lp64d/libc.a(lib_a-wcrtomb.o)
                                                  /opt/Xuantie-900-gcc-elf-newlib-x86_64-V2.8.1/bin/../lib/gcc/riscv64-unknown-elf/10.4.0/../../../../riscv64-unknown-elf/lib/rv64imafdc/lp64d/libc.a(lib_a-wbuf.o)
                                                  /opt/Xuantie-900-gcc-elf-newlib-x86_64-V2.8.1/bin/../lib/gcc/riscv64-unknown-elf/10.4.0/../../../../riscv64-unknown-elf/lib/rv64imafdc/lp64d/libc.a(lib_a-fputwc.o)
                                                  /opt/Xuantie-900-gcc-elf-newlib-x86_64-V2.8.1/bin/../lib/gcc/riscv64-unknown-elf/10.4.0/../../../../riscv64-unknown-elf/lib/rv64imafdc/lp64d/libc.a(lib_a-fiprintf.o)
                                                  /opt/Xuantie-900-gcc-elf-newlib-x86_64-V2.8.1/bin/../lib/gcc/riscv64-unknown-elf/10.4.0/../../../../riscv64-unknown-elf/lib/rv64imafdc/lp64d/libc.a(lib_a-fclose.o)
                                                  /opt/Xuantie-900-gcc-elf-newlib-x86_64-V2.8.1/bin/../lib/gcc/riscv64-unknown-elf/10.4.0/../../../../riscv64-unknown-elf/lib/rv64imafdc/lp64d/libc.a(lib_a-assert.o)
                                                  /opt/Xuantie-900-gcc-elf-newlib-x86_64-V2.8.1/bin/../lib/gcc/riscv64-unknown-elf/10.4.0/../../../../riscv64-unknown-elf/lib/rv64imafdc/lp64d/libc.a(lib_a-vfiprintf.o)
                                                  /opt/Xuantie-900-gcc-elf-newlib-x86_64-V2.8.1/bin/../lib/gcc/riscv64-unknown-elf/10.4.0/../../../../riscv64-unknown-elf/lib/rv64imafdc/lp64d/libc.a(lib_a-sprintf.o)
                                                  /opt/Xuantie-900-gcc-elf-newlib-x86_64-V2.8.1/bin/../lib/gcc/riscv64-unknown-elf/10.4.0/../../../../riscv64-unknown-elf/lib/rv64imafdc/lp64d/libc.a(lib_a-findfp.o)
                                                  /opt/Xuantie-900-gcc-elf-newlib-x86_64-V2.8.1/bin/../lib/gcc/riscv64-unknown-elf/10.4.0/../../../../riscv64-unknown-elf/lib/rv64imafdc/lp64d/libc.a(lib_a-fflush.o)
                                                  /opt/Xuantie-900-gcc-elf-newlib-x86_64-V2.8.1/bin/../lib/gcc/riscv64-unknown-elf/10.4.0/../../../../riscv64-unknown-elf/lib/rv64imafdc/lp64d/libc.a(lib_a-wsetup.o)
                                                  /opt/Xuantie-900-gcc-elf-newlib-x86_64-V2.8.1/bin/../lib/gcc/riscv64-unknown-elf/10.4.0/../../../../riscv64-unknown-elf/lib/rv64imafdc/lp64d/libc.a(lib_a-vfprintf.o)
                                                  /opt/Xuantie-900-gcc-elf-newlib-x86_64-V2.8.1/bin/../lib/gcc/riscv64-unknown-elf/10.4.0/../../../../riscv64-unknown-elf/lib/rv64imafdc/lp64d/libc.a(lib_a-strtoul.o)
                                                  /opt/Xuantie-900-gcc-elf-newlib-x86_64-V2.8.1/bin/../lib/gcc/riscv64-unknown-elf/10.4.0/../../../../riscv64-unknown-elf/lib/rv64imafdc/lp64d/libc.a(lib_a-strtol.o)
                                                  /opt/Xuantie-900-gcc-elf-newlib-x86_64-V2.8.1/bin/../lib/gcc/riscv64-unknown-elf/10.4.0/../../../../riscv64-unknown-elf/lib/rv64imafdc/lp64d/libc.a(lib_a-printf.o)
                                                  /opt/Xuantie-900-gcc-elf-newlib-x86_64-V2.8.1/bin/../lib/gcc/riscv64-unknown-elf/10.4.0/../../../../riscv64-unknown-elf/lib/rv64imafdc/lp64d/libc.a(lib_a-malloc.o)
_init_signal                                      /opt/Xuantie-900-gcc-elf-newlib-x86_64-V2.8.1/bin/../lib/gcc/riscv64-unknown-elf/10.4.0/../../../../riscv64-unknown-elf/lib/rv64imafdc/lp64d/libc.a(lib_a-signal.o)
_init_signal_r                                    /opt/Xuantie-900-gcc-elf-newlib-x86_64-V2.8.1/bin/../lib/gcc/riscv64-unknown-elf/10.4.0/../../../../riscv64-unknown-elf/lib/rv64imafdc/lp64d/libc.a(lib_a-signal.o)
_interrupt_return_address                         build/board/vectors.o
_isatty_r                                         build/kernel/components/libc/compilers/newlib/syscalls.o
                                                  /opt/Xuantie-900-gcc-elf-newlib-x86_64-V2.8.1/bin/../lib/gcc/riscv64-unknown-elf/10.4.0/../../../../riscv64-unknown-elf/lib/rv64imafdc/lp64d/libc.a(lib_a-makebuf.o)
_kill_r                                           build/kernel/components/libc/compilers/newlib/syscalls.o
                                                  /opt/Xuantie-900-gcc-elf-newlib-x86_64-V2.8.1/bin/../lib/gcc/riscv64-unknown-elf/10.4.0/../../../../riscv64-unknown-elf/lib/rv64imafdc/lp64d/libc.a(lib_a-signal.o)
_ldcheck                                          /opt/Xuantie-900-gcc-elf-newlib-x86_64-V2.8.1/bin/../lib/gcc/riscv64-unknown-elf/10.4.0/../../../../riscv64-unknown-elf/lib/rv64imafdc/lp64d/libc.a(lib_a-ldtoa.o)
                                                  /opt/Xuantie-900-gcc-elf-newlib-x86_64-V2.8.1/bin/../lib/gcc/riscv64-unknown-elf/10.4.0/../../../../riscv64-unknown-elf/lib/rv64imafdc/lp64d/libc.a(lib_a-svfprintf.o)
                                                  /opt/Xuantie-900-gcc-elf-newlib-x86_64-V2.8.1/bin/../lib/gcc/riscv64-unknown-elf/10.4.0/../../../../riscv64-unknown-elf/lib/rv64imafdc/lp64d/libc.a(lib_a-vfprintf.o)
_ldtoa_r                                          /opt/Xuantie-900-gcc-elf-newlib-x86_64-V2.8.1/bin/../lib/gcc/riscv64-unknown-elf/10.4.0/../../../../riscv64-unknown-elf/lib/rv64imafdc/lp64d/libc.a(lib_a-ldtoa.o)
                                                  /opt/Xuantie-900-gcc-elf-newlib-x86_64-V2.8.1/bin/../lib/gcc/riscv64-unknown-elf/10.4.0/../../../../riscv64-unknown-elf/lib/rv64imafdc/lp64d/libc.a(lib_a-svfprintf.o)
                                                  /opt/Xuantie-900-gcc-elf-newlib-x86_64-V2.8.1/bin/../lib/gcc/riscv64-unknown-elf/10.4.0/../../../../riscv64-unknown-elf/lib/rv64imafdc/lp64d/libc.a(lib_a-vfprintf.o)
_link_r                                           build/kernel/components/libc/compilers/newlib/syscalls.o
_localeconv_r                                     /opt/Xuantie-900-gcc-elf-newlib-x86_64-V2.8.1/bin/../lib/gcc/riscv64-unknown-elf/10.4.0/../../../../riscv64-unknown-elf/lib/rv64imafdc/lp64d/libc.a(lib_a-localeconv.o)
                                                  /opt/Xuantie-900-gcc-elf-newlib-x86_64-V2.8.1/bin/../lib/gcc/riscv64-unknown-elf/10.4.0/../../../../riscv64-unknown-elf/lib/rv64imafdc/lp64d/libc.a(lib_a-svfiprintf.o)
                                                  /opt/Xuantie-900-gcc-elf-newlib-x86_64-V2.8.1/bin/../lib/gcc/riscv64-unknown-elf/10.4.0/../../../../riscv64-unknown-elf/lib/rv64imafdc/lp64d/libc.a(lib_a-vfiprintf.o)
                                                  /opt/Xuantie-900-gcc-elf-newlib-x86_64-V2.8.1/bin/../lib/gcc/riscv64-unknown-elf/10.4.0/../../../../riscv64-unknown-elf/lib/rv64imafdc/lp64d/libc.a(lib_a-svfprintf.o)
                                                  /opt/Xuantie-900-gcc-elf-newlib-x86_64-V2.8.1/bin/../lib/gcc/riscv64-unknown-elf/10.4.0/../../../../riscv64-unknown-elf/lib/rv64imafdc/lp64d/libc.a(lib_a-vfprintf.o)
_lseek_r                                          build/kernel/components/libc/compilers/newlib/syscalls.o
                                                  /opt/Xuantie-900-gcc-elf-newlib-x86_64-V2.8.1/bin/../lib/gcc/riscv64-unknown-elf/10.4.0/../../../../riscv64-unknown-elf/lib/rv64imafdc/lp64d/libc.a(lib_a-stdio.o)
_malloc_r                                         build/kernel/components/libc/compilers/newlib/syscalls.o
                                                  /opt/Xuantie-900-gcc-elf-newlib-x86_64-V2.8.1/bin/../lib/gcc/riscv64-unknown-elf/10.4.0/../../../../riscv64-unknown-elf/lib/rv64imafdc/lp64d/libc.a(lib_a-signal.o)
                                                  /opt/Xuantie-900-gcc-elf-newlib-x86_64-V2.8.1/bin/../lib/gcc/riscv64-unknown-elf/10.4.0/../../../../riscv64-unknown-elf/lib/rv64imafdc/lp64d/libc.a(lib_a-svfiprintf.o)
                                                  /opt/Xuantie-900-gcc-elf-newlib-x86_64-V2.8.1/bin/../lib/gcc/riscv64-unknown-elf/10.4.0/../../../../riscv64-unknown-elf/lib/rv64imafdc/lp64d/libc.a(lib_a-fvwrite.o)
                                                  /opt/Xuantie-900-gcc-elf-newlib-x86_64-V2.8.1/bin/../lib/gcc/riscv64-unknown-elf/10.4.0/../../../../riscv64-unknown-elf/lib/rv64imafdc/lp64d/libc.a(lib_a-svfprintf.o)
                                                  /opt/Xuantie-900-gcc-elf-newlib-x86_64-V2.8.1/bin/../lib/gcc/riscv64-unknown-elf/10.4.0/../../../../riscv64-unknown-elf/lib/rv64imafdc/lp64d/libc.a(lib_a-makebuf.o)
                                                  /opt/Xuantie-900-gcc-elf-newlib-x86_64-V2.8.1/bin/../lib/gcc/riscv64-unknown-elf/10.4.0/../../../../riscv64-unknown-elf/lib/rv64imafdc/lp64d/libc.a(lib_a-findfp.o)
                                                  /opt/Xuantie-900-gcc-elf-newlib-x86_64-V2.8.1/bin/../lib/gcc/riscv64-unknown-elf/10.4.0/../../../../riscv64-unknown-elf/lib/rv64imafdc/lp64d/libc.a(lib_a-vfprintf.o)
                                                  /opt/Xuantie-900-gcc-elf-newlib-x86_64-V2.8.1/bin/../lib/gcc/riscv64-unknown-elf/10.4.0/../../../../riscv64-unknown-elf/lib/rv64imafdc/lp64d/libc.a(lib_a-malloc.o)
_mbtowc_r                                         /opt/Xuantie-900-gcc-elf-newlib-x86_64-V2.8.1/bin/../lib/gcc/riscv64-unknown-elf/10.4.0/../../../../riscv64-unknown-elf/lib/rv64imafdc/lp64d/libc.a(lib_a-mbtowc_r.o)
_mkdir_r                                          build/kernel/components/libc/compilers/newlib/syscalls.o
_mprec_log10                                      /opt/Xuantie-900-gcc-elf-newlib-x86_64-V2.8.1/bin/../lib/gcc/riscv64-unknown-elf/10.4.0/../../../../riscv64-unknown-elf/lib/rv64imafdc/lp64d/libc.a(lib_a-mprec.o)
_open_r                                           build/kernel/components/libc/compilers/newlib/syscalls.o
_printf_r                                         /opt/Xuantie-900-gcc-elf-newlib-x86_64-V2.8.1/bin/../lib/gcc/riscv64-unknown-elf/10.4.0/../../../../riscv64-unknown-elf/lib/rv64imafdc/lp64d/libc.a(lib_a-printf.o)
_raise_r                                          /opt/Xuantie-900-gcc-elf-newlib-x86_64-V2.8.1/bin/../lib/gcc/riscv64-unknown-elf/10.4.0/../../../../riscv64-unknown-elf/lib/rv64imafdc/lp64d/libc.a(lib_a-signal.o)
_read_r                                           build/kernel/components/libc/compilers/newlib/syscalls.o
                                                  /opt/Xuantie-900-gcc-elf-newlib-x86_64-V2.8.1/bin/../lib/gcc/riscv64-unknown-elf/10.4.0/../../../../riscv64-unknown-elf/lib/rv64imafdc/lp64d/libc.a(lib_a-stdio.o)
_realloc_r                                        build/kernel/components/libc/compilers/newlib/syscalls.o
                                                  /opt/Xuantie-900-gcc-elf-newlib-x86_64-V2.8.1/bin/../lib/gcc/riscv64-unknown-elf/10.4.0/../../../../riscv64-unknown-elf/lib/rv64imafdc/lp64d/libc.a(lib_a-svfiprintf.o)
                                                  /opt/Xuantie-900-gcc-elf-newlib-x86_64-V2.8.1/bin/../lib/gcc/riscv64-unknown-elf/10.4.0/../../../../riscv64-unknown-elf/lib/rv64imafdc/lp64d/libc.a(lib_a-fvwrite.o)
_rename_r                                         build/kernel/components/libc/compilers/newlib/syscalls.o
_rt_errno                                         build/kernel/src/klibc/kstdio.o
                                                  build/kernel/components/libc/compilers/newlib/syscalls.o
_setlocale_r                                      /opt/Xuantie-900-gcc-elf-newlib-x86_64-V2.8.1/bin/../lib/gcc/riscv64-unknown-elf/10.4.0/../../../../riscv64-unknown-elf/lib/rv64imafdc/lp64d/libc.a(lib_a-locale.o)
_signal_r                                         /opt/Xuantie-900-gcc-elf-newlib-x86_64-V2.8.1/bin/../lib/gcc/riscv64-unknown-elf/10.4.0/../../../../riscv64-unknown-elf/lib/rv64imafdc/lp64d/libc.a(lib_a-signal.o)
_sprintf_r                                        /opt/Xuantie-900-gcc-elf-newlib-x86_64-V2.8.1/bin/../lib/gcc/riscv64-unknown-elf/10.4.0/../../../../riscv64-unknown-elf/lib/rv64imafdc/lp64d/libc.a(lib_a-sprintf.o)
_stat_r                                           build/kernel/components/libc/compilers/newlib/syscalls.o
_strtol_r                                         /opt/Xuantie-900-gcc-elf-newlib-x86_64-V2.8.1/bin/../lib/gcc/riscv64-unknown-elf/10.4.0/../../../../riscv64-unknown-elf/lib/rv64imafdc/lp64d/libc.a(lib_a-strtol.o)
                                                  /opt/Xuantie-900-gcc-elf-newlib-x86_64-V2.8.1/bin/../lib/gcc/riscv64-unknown-elf/10.4.0/../../../../riscv64-unknown-elf/lib/rv64imafdc/lp64d/libc.a(lib_a-atoi.o)
_strtoul_r                                        /opt/Xuantie-900-gcc-elf-newlib-x86_64-V2.8.1/bin/../lib/gcc/riscv64-unknown-elf/10.4.0/../../../../riscv64-unknown-elf/lib/rv64imafdc/lp64d/libc.a(lib_a-strtoul.o)
_svfiprintf_r                                     /opt/Xuantie-900-gcc-elf-newlib-x86_64-V2.8.1/bin/../lib/gcc/riscv64-unknown-elf/10.4.0/../../../../riscv64-unknown-elf/lib/rv64imafdc/lp64d/libc.a(lib_a-svfiprintf.o)
_svfprintf_r                                      /opt/Xuantie-900-gcc-elf-newlib-x86_64-V2.8.1/bin/../lib/gcc/riscv64-unknown-elf/10.4.0/../../../../riscv64-unknown-elf/lib/rv64imafdc/lp64d/libc.a(lib_a-svfprintf.o)
                                                  /opt/Xuantie-900-gcc-elf-newlib-x86_64-V2.8.1/bin/../lib/gcc/riscv64-unknown-elf/10.4.0/../../../../riscv64-unknown-elf/lib/rv64imafdc/lp64d/libc.a(lib_a-sprintf.o)
_syscall_table_begin                              build/kernel/components/finsh/shell.o
                                                  build/kernel/components/finsh/msh.o
_syscall_table_end                                build/kernel/components/finsh/shell.o
                                                  build/kernel/components/finsh/msh.o
_unlink_r                                         build/kernel/components/libc/compilers/newlib/syscalls.o
_vfiprintf_r                                      /opt/Xuantie-900-gcc-elf-newlib-x86_64-V2.8.1/bin/../lib/gcc/riscv64-unknown-elf/10.4.0/../../../../riscv64-unknown-elf/lib/rv64imafdc/lp64d/libc.a(lib_a-vfiprintf.o)
                                                  /opt/Xuantie-900-gcc-elf-newlib-x86_64-V2.8.1/bin/../lib/gcc/riscv64-unknown-elf/10.4.0/../../../../riscv64-unknown-elf/lib/rv64imafdc/lp64d/libc.a(lib_a-fiprintf.o)
_vfprintf_r                                       /opt/Xuantie-900-gcc-elf-newlib-x86_64-V2.8.1/bin/../lib/gcc/riscv64-unknown-elf/10.4.0/../../../../riscv64-unknown-elf/lib/rv64imafdc/lp64d/libc.a(lib_a-vfprintf.o)
                                                  /opt/Xuantie-900-gcc-elf-newlib-x86_64-V2.8.1/bin/../lib/gcc/riscv64-unknown-elf/10.4.0/../../../../riscv64-unknown-elf/lib/rv64imafdc/lp64d/libc.a(lib_a-printf.o)
_wait_r                                           build/kernel/components/libc/compilers/newlib/syscalls.o
_wcrtomb_r                                        /opt/Xuantie-900-gcc-elf-newlib-x86_64-V2.8.1/bin/../lib/gcc/riscv64-unknown-elf/10.4.0/../../../../riscv64-unknown-elf/lib/rv64imafdc/lp64d/libc.a(lib_a-wcrtomb.o)
                                                  /opt/Xuantie-900-gcc-elf-newlib-x86_64-V2.8.1/bin/../lib/gcc/riscv64-unknown-elf/10.4.0/../../../../riscv64-unknown-elf/lib/rv64imafdc/lp64d/libc.a(lib_a-fputwc.o)
_wctomb_r                                         /opt/Xuantie-900-gcc-elf-newlib-x86_64-V2.8.1/bin/../lib/gcc/riscv64-unknown-elf/10.4.0/../../../../riscv64-unknown-elf/lib/rv64imafdc/lp64d/libc.a(lib_a-wctomb_r.o)
_write_r                                          build/kernel/components/libc/compilers/newlib/syscalls.o
                                                  /opt/Xuantie-900-gcc-elf-newlib-x86_64-V2.8.1/bin/../lib/gcc/riscv64-unknown-elf/10.4.0/../../../../riscv64-unknown-elf/lib/rv64imafdc/lp64d/libc.a(lib_a-stdio.o)
abort                                             /opt/Xuantie-900-gcc-elf-newlib-x86_64-V2.8.1/bin/../lib/gcc/riscv64-unknown-elf/10.4.0/../../../../riscv64-unknown-elf/lib/rv64imafdc/lp64d/libc.a(lib_a-abort.o)
                                                  /opt/Xuantie-900-gcc-elf-newlib-x86_64-V2.8.1/bin/../lib/gcc/riscv64-unknown-elf/10.4.0/../../../../riscv64-unknown-elf/lib/rv64imafdc/lp64d/libc.a(lib_a-assert.o)
asctime                                           build/kernel/components/libc/compilers/common/ctime.o
asctime_r                                         build/kernel/components/libc/compilers/common/ctime.o
atoi                                              /opt/Xuantie-900-gcc-elf-newlib-x86_64-V2.8.1/bin/../lib/gcc/riscv64-unknown-elf/10.4.0/../../../../riscv64-unknown-elf/lib/rv64imafdc/lp64d/libc.a(lib_a-atoi.o)
                                                  build/kernel/components/drivers/pin/pin.o
bcmp                                              build/kernel/components/libc/compilers/common/cstring.o
bcopy                                             build/kernel/components/libc/compilers/common/cstring.o
bzero                                             build/kernel/components/libc/compilers/common/cstring.o
clk_map                                           build/board/devices.o
clock                                             build/kernel/components/libc/compilers/common/ctime.o
clock_cpu_getres                                  build/kernel/components/drivers/cputime/cputime.o
                                                  build/kernel/components/drivers/cputime/cputimer.o
clock_cpu_gettime                                 build/kernel/components/drivers/cputime/cputime.o
                                                  build/kernel/components/drivers/cputime/cputimer.o
clock_cpu_issettimeout                            build/kernel/components/drivers/cputime/cputime.o
                                                  build/kernel/components/drivers/cputime/cputimer.o
clock_cpu_microsecond                             build/kernel/components/drivers/cputime/cputime.o
clock_cpu_millisecond                             build/kernel/components/drivers/cputime/cputime.o
                                                  build/kernel/components/drivers/cputime/cputimer.o
clock_cpu_setops                                  build/kernel/components/drivers/cputime/cputime.o
                                                  build/kernel/components/drivers/cputime/cputime_riscv.o
clock_cpu_settimeout                              build/kernel/components/drivers/cputime/cputime.o
                                                  build/kernel/components/drivers/cputime/cputimer.o
csi_dma_ch_alloc                                  build/board/uart.o
csi_dma_ch_attach_callback                        build/board/uart.o
csi_dma_ch_config                                 build/board/uart.o
csi_dma_ch_detach_callback                        build/board/uart.o
csi_dma_ch_free                                   build/board/uart.o
csi_dma_ch_start                                  build/board/uart.o
csi_dma_ch_stop                                   build/board/uart.o
csi_irq_attach                                    build/board/irq.o
                                                  build/board/uart.o
csi_irq_attach2                                   build/board/irq.o
csi_irq_context                                   build/board/irq.o
csi_irq_detach                                    build/board/irq.o
                                                  build/board/uart.o
csi_pin_get_mux                                   build/board/target_get.o
csi_tick_get                                      build/board/tick.o
csi_tick_get_ms                                   build/board/tick.o
                                                  build/board/uart.o
csi_tick_get_us                                   build/board/tick.o
csi_tick_increase                                 build/board/tick.o
csi_tick_init                                     build/board/tick.o
                                                  build/board/system.o
csi_tick_uninit                                   build/board/tick.o
csi_uart_attach_callback                          build/board/uart.o
csi_uart_baud                                     build/board/uart.o
                                                  build/board/board_uart.o
csi_uart_detach_callback                          build/board/uart.o
csi_uart_flowctrl                                 build/board/uart.o
csi_uart_format                                   build/board/uart.o
                                                  build/board/board_uart.o
csi_uart_get_state                                build/board/uart.o
csi_uart_getc                                     build/board/uart.o
                                                  build/board/board_uart.o
csi_uart_init                                     build/board/uart.o
                                                  build/board/board_uart.o
csi_uart_link_dma                                 build/board/uart.o
csi_uart_putc                                     build/board/uart.o
                                                  build/board/board_uart.o
csi_uart_receive                                  build/board/uart.o
csi_uart_receive_async                            build/board/uart.o
csi_uart_send                                     build/board/uart.o
csi_uart_send_async                               build/board/uart.o
csi_uart_uninit                                   build/board/uart.o
ctime                                             build/kernel/components/libc/compilers/common/ctime.o
ctime_r                                           build/kernel/components/libc/compilers/common/ctime.o
difftime                                          build/kernel/components/libc/compilers/common/ctime.o
dma_spt_list                                      build/board/devices.o
                                                  build/board/target_get.o
do_irq                                            build/board/irq.o
                                                  build/board/vectors.o
dw_uart_config_baudrate                           build/board/dw_uart_ll.o
                                                  build/board/uart.o
dw_uart_config_data_bits                          build/board/dw_uart_ll.o
                                                  build/board/uart.o
dw_uart_config_parity_even                        build/board/dw_uart_ll.o
                                                  build/board/uart.o
dw_uart_config_parity_none                        build/board/dw_uart_ll.o
                                                  build/board/uart.o
dw_uart_config_parity_odd                         build/board/dw_uart_ll.o
                                                  build/board/uart.o
dw_uart_config_stop_bits                          build/board/dw_uart_ll.o
                                                  build/board/uart.o
dw_uart_irq_handler                               build/board/uart.o
                                                  build/board/board_uart.o
dw_uart_receive_dma                               build/board/uart.o
dw_uart_receive_intr                              build/board/uart.o
dw_uart_send_dma                                  build/board/uart.o
dw_uart_send_intr                                 build/board/uart.o
dw_uart_wait_idle                                 build/board/dw_uart_ll.o
                                                  build/board/uart.o
dw_uart_wait_timeout                              build/board/dw_uart_ll.o
entry                                             build/kernel/src/components.o
                                                  build/board/startup.o
exceptionHandler                                  build/board/trap_c.o
                                                  build/board/vectors.o
explicit_bzero                                    build/kernel/components/libc/compilers/common/cstring.o
fclose                                            /opt/Xuantie-900-gcc-elf-newlib-x86_64-V2.8.1/bin/../lib/gcc/riscv64-unknown-elf/10.4.0/../../../../riscv64-unknown-elf/lib/rv64imafdc/lp64d/libc.a(lib_a-fclose.o)
fflush                                            /opt/Xuantie-900-gcc-elf-newlib-x86_64-V2.8.1/bin/../lib/gcc/riscv64-unknown-elf/10.4.0/../../../../riscv64-unknown-elf/lib/rv64imafdc/lp64d/libc.a(lib_a-fflush.o)
ffs                                               build/kernel/components/libc/compilers/common/cstring.o
ffsl                                              build/kernel/components/libc/compilers/common/cstring.o
ffsll                                             build/kernel/components/libc/compilers/common/cstring.o
finsh_get_device                                  build/kernel/components/finsh/shell.o
finsh_get_echo                                    build/kernel/components/finsh/shell.o
finsh_get_prompt                                  build/kernel/components/finsh/shell.o
finsh_get_prompt_mode                             build/kernel/components/finsh/shell.o
finsh_getchar                                     build/kernel/components/finsh/shell.o
finsh_set_device                                  build/kernel/components/finsh/shell.o
finsh_set_echo                                    build/kernel/components/finsh/shell.o
finsh_set_prompt                                  build/kernel/components/finsh/shell.o
finsh_set_prompt_mode                             build/kernel/components/finsh/shell.o
finsh_system_init                                 build/kernel/components/finsh/shell.o
finsh_thread_entry_sethook                        build/kernel/components/finsh/shell.o
fiprintf                                          /opt/Xuantie-900-gcc-elf-newlib-x86_64-V2.8.1/bin/../lib/gcc/riscv64-unknown-elf/10.4.0/../../../../riscv64-unknown-elf/lib/rv64imafdc/lp64d/libc.a(lib_a-fiprintf.o)
                                                  /opt/Xuantie-900-gcc-elf-newlib-x86_64-V2.8.1/bin/../lib/gcc/riscv64-unknown-elf/10.4.0/../../../../riscv64-unknown-elf/lib/rv64imafdc/lp64d/libc.a(lib_a-assert.o)
flock                                             build/kernel/components/libc/compilers/newlib/syscalls.o
fputwc                                            /opt/Xuantie-900-gcc-elf-newlib-x86_64-V2.8.1/bin/../lib/gcc/riscv64-unknown-elf/10.4.0/../../../../riscv64-unknown-elf/lib/rv64imafdc/lp64d/libc.a(lib_a-fputwc.o)
free                                              /opt/Xuantie-900-gcc-elf-newlib-x86_64-V2.8.1/bin/../lib/gcc/riscv64-unknown-elf/10.4.0/../../../../riscv64-unknown-elf/lib/rv64imafdc/lp64d/libc.a(lib_a-malloc.o)
frexp                                             /opt/Xuantie-900-gcc-elf-newlib-x86_64-V2.8.1/bin/../lib/gcc/riscv64-unknown-elf/10.4.0/../../../../riscv64-unknown-elf/lib/rv64imafdc/lp64d/libc.a(lib_a-s_frexp.o)
                                                  /opt/Xuantie-900-gcc-elf-newlib-x86_64-V2.8.1/bin/../lib/gcc/riscv64-unknown-elf/10.4.0/../../../../riscv64-unknown-elf/lib/rv64imafdc/lp64d/libc.a(lib_a-svfprintf.o)
                                                  /opt/Xuantie-900-gcc-elf-newlib-x86_64-V2.8.1/bin/../lib/gcc/riscv64-unknown-elf/10.4.0/../../../../riscv64-unknown-elf/lib/rv64imafdc/lp64d/libc.a(lib_a-vfprintf.o)
g_base_irqstack                                   build/board/startup.o
g_console_handle                                  build/board/board_uart.o
g_dma_chnum                                       build/board/devices.o
g_irq_nested_level                                build/board/irq.o
g_irq_table                                       build/board/irq.o
g_soc_info                                        build/board/devices.o
                                                  build/board/target_get.o
g_system_clock                                    build/board/sys_clk.o
g_top_irqstack                                    build/board/startup.o
                                                  build/board/vectors.o
g_top_trapstack                                   build/board/vectors.o
g_trapstackbase                                   build/board/vectors.o
gettimeofday                                      build/kernel/components/libc/compilers/common/ctime.o
gmtime                                            build/kernel/components/libc/compilers/common/ctime.o
gmtime_r                                          build/kernel/components/libc/compilers/common/ctime.o
gpio_pinmap                                       build/board/devices.o
handle_trap                                       build/kernel/libcpu/risc-v/rv64/trap.o
                                                  build/kernel/libcpu/risc-v/common/interrupt_gcc.o
index                                             build/kernel/components/libc/compilers/common/cstring.o
isascii                                           build/kernel/components/libc/compilers/common/cctype.o
isatty                                            build/kernel/components/libc/compilers/common/cunistd.o
isr_table                                         build/board/interrupt.o
itoa                                              build/kernel/components/libc/compilers/common/cstdlib.o
list_device                                       build/kernel/components/finsh/cmd.o
list_event                                        build/kernel/components/finsh/cmd.o
list_mailbox                                      build/kernel/components/finsh/cmd.o
list_mempool                                      build/kernel/components/finsh/cmd.o
list_msgqueue                                     build/kernel/components/finsh/cmd.o
list_mutex                                        build/kernel/components/finsh/cmd.o
list_sem                                          build/kernel/components/finsh/cmd.o
list_thread                                       build/kernel/components/finsh/cmd.o
                                                  build/kernel/components/finsh/msh.o
                                                  build/kernel/libcpu/risc-v/rv64/trap.o
list_timer                                        build/kernel/components/finsh/cmd.o
localeconv                                        /opt/Xuantie-900-gcc-elf-newlib-x86_64-V2.8.1/bin/../lib/gcc/riscv64-unknown-elf/10.4.0/../../../../riscv64-unknown-elf/lib/rv64imafdc/lp64d/libc.a(lib_a-localeconv.o)
localtime                                         build/kernel/components/libc/compilers/common/ctime.o
localtime_r                                       build/kernel/components/libc/compilers/common/ctime.o
ltoa                                              build/kernel/components/libc/compilers/common/cstdlib.o
main                                              build/applications/main.o
                                                  build/kernel/src/components.o
malloc                                            /opt/Xuantie-900-gcc-elf-newlib-x86_64-V2.8.1/bin/../lib/gcc/riscv64-unknown-elf/10.4.0/../../../../riscv64-unknown-elf/lib/rv64imafdc/lp64d/libc.a(lib_a-malloc.o)
                                                  build/kernel/components/libc/compilers/common/cstring.o
mdelay                                            build/board/tick.o
                                                  build/board/dw_uart_ll.o
memchr                                            /opt/Xuantie-900-gcc-elf-newlib-x86_64-V2.8.1/bin/../lib/gcc/riscv64-unknown-elf/10.4.0/../../../../riscv64-unknown-elf/lib/rv64imafdc/lp64d/libc.a(lib_a-memchr.o)
                                                  /opt/Xuantie-900-gcc-elf-newlib-x86_64-V2.8.1/bin/../lib/gcc/riscv64-unknown-elf/10.4.0/../../../../riscv64-unknown-elf/lib/rv64imafdc/lp64d/libc.a(lib_a-svfiprintf.o)
                                                  /opt/Xuantie-900-gcc-elf-newlib-x86_64-V2.8.1/bin/../lib/gcc/riscv64-unknown-elf/10.4.0/../../../../riscv64-unknown-elf/lib/rv64imafdc/lp64d/libc.a(lib_a-fvwrite.o)
                                                  /opt/Xuantie-900-gcc-elf-newlib-x86_64-V2.8.1/bin/../lib/gcc/riscv64-unknown-elf/10.4.0/../../../../riscv64-unknown-elf/lib/rv64imafdc/lp64d/libc.a(lib_a-vfiprintf.o)
                                                  /opt/Xuantie-900-gcc-elf-newlib-x86_64-V2.8.1/bin/../lib/gcc/riscv64-unknown-elf/10.4.0/../../../../riscv64-unknown-elf/lib/rv64imafdc/lp64d/libc.a(lib_a-svfprintf.o)
                                                  /opt/Xuantie-900-gcc-elf-newlib-x86_64-V2.8.1/bin/../lib/gcc/riscv64-unknown-elf/10.4.0/../../../../riscv64-unknown-elf/lib/rv64imafdc/lp64d/libc.a(lib_a-vfprintf.o)
memcmp                                            /opt/Xuantie-900-gcc-elf-newlib-x86_64-V2.8.1/bin/../lib/gcc/riscv64-unknown-elf/10.4.0/../../../../riscv64-unknown-elf/lib/rv64imafdc/lp64d/libc.a(lib_a-memcmp.o)
                                                  build/kernel/components/finsh/shell.o
memcpy                                            /opt/Xuantie-900-gcc-elf-newlib-x86_64-V2.8.1/bin/../lib/gcc/riscv64-unknown-elf/10.4.0/../../../../riscv64-unknown-elf/lib/rv64imafdc/lp64d/libc.a(lib_a-memcpy-asm.o)
                                                  /opt/Xuantie-900-gcc-elf-newlib-x86_64-V2.8.1/bin/../lib/gcc/riscv64-unknown-elf/10.4.0/../../../../riscv64-unknown-elf/lib/rv64imafdc/lp64d/libc.a(lib_a-svfiprintf.o)
                                                  /opt/Xuantie-900-gcc-elf-newlib-x86_64-V2.8.1/bin/../lib/gcc/riscv64-unknown-elf/10.4.0/../../../../riscv64-unknown-elf/lib/rv64imafdc/lp64d/libc.a(lib_a-fvwrite.o)
                                                  /opt/Xuantie-900-gcc-elf-newlib-x86_64-V2.8.1/bin/../lib/gcc/riscv64-unknown-elf/10.4.0/../../../../riscv64-unknown-elf/lib/rv64imafdc/lp64d/libc.a(lib_a-mprec.o)
memmove                                           /opt/Xuantie-900-gcc-elf-newlib-x86_64-V2.8.1/bin/../lib/gcc/riscv64-unknown-elf/10.4.0/../../../../riscv64-unknown-elf/lib/rv64imafdc/lp64d/libc.a(lib_a-memmove-stub.o)
                                                  /opt/Xuantie-900-gcc-elf-newlib-x86_64-V2.8.1/bin/../lib/gcc/riscv64-unknown-elf/10.4.0/../../../../riscv64-unknown-elf/lib/rv64imafdc/lp64d/libc.a(lib_a-svfiprintf.o)
                                                  /opt/Xuantie-900-gcc-elf-newlib-x86_64-V2.8.1/bin/../lib/gcc/riscv64-unknown-elf/10.4.0/../../../../riscv64-unknown-elf/lib/rv64imafdc/lp64d/libc.a(lib_a-fvwrite.o)
memrchr                                           build/kernel/components/libc/compilers/common/cstring.o
memset                                            /opt/Xuantie-900-gcc-elf-newlib-x86_64-V2.8.1/bin/../lib/gcc/riscv64-unknown-elf/10.4.0/../../../../riscv64-unknown-elf/lib/rv64imafdc/lp64d/libc.a(lib_a-memset.o)
                                                  /opt/Xuantie-900-gcc-elf-newlib-x86_64-V2.8.1/bin/../lib/gcc/riscv64-unknown-elf/10.4.0/../../../../riscv64-unknown-elf/lib/rv64imafdc/lp64d/libc.a(lib_a-findfp.o)
                                                  build/board/uart.o
                                                  build/board/board.o
mktime                                            build/kernel/components/libc/compilers/common/ctime.o
msh_auto_complete                                 build/kernel/components/finsh/msh.o
                                                  build/kernel/components/finsh/shell.o
msh_cmd_opt_id_get                                build/kernel/components/finsh/msh.o
                                                  build/kernel/components/finsh/cmd.o
msh_exec                                          build/kernel/components/finsh/msh.o
                                                  build/kernel/components/finsh/shell.o
                                                  build/kernel/components/libc/compilers/common/cstdlib.o
msh_ishex                                         build/kernel/components/finsh/msh_parse.o
msh_isint                                         build/kernel/components/finsh/msh_parse.o
                                                  build/kernel/components/drivers/pin/pin.o
msh_opt_auto_complete                             build/kernel/components/finsh/msh.o
                                                  build/kernel/components/finsh/shell.o
msh_opt_list_dump                                 build/kernel/components/finsh/msh.o
                                                  build/kernel/components/finsh/cmd.o
msh_strtohex                                      build/kernel/components/finsh/msh_parse.o
printf                                            /opt/Xuantie-900-gcc-elf-newlib-x86_64-V2.8.1/bin/../lib/gcc/riscv64-unknown-elf/10.4.0/../../../../riscv64-unknown-elf/lib/rv64imafdc/lp64d/libc.a(lib_a-printf.o)
                                                  build/board/trap_c.o
raise                                             /opt/Xuantie-900-gcc-elf-newlib-x86_64-V2.8.1/bin/../lib/gcc/riscv64-unknown-elf/10.4.0/../../../../riscv64-unknown-elf/lib/rv64imafdc/lp64d/libc.a(lib_a-signal.o)
                                                  /opt/Xuantie-900-gcc-elf-newlib-x86_64-V2.8.1/bin/../lib/gcc/riscv64-unknown-elf/10.4.0/../../../../riscv64-unknown-elf/lib/rv64imafdc/lp64d/libc.a(lib_a-abort.o)
rindex                                            build/kernel/components/libc/compilers/common/cstring.o
riscv_cputime_init                                build/kernel/components/drivers/cputime/cputime_riscv.o
rt_application_init                               build/kernel/src/components.o
rt_assert_handler                                 build/kernel/src/kservice.o
                                                  build/kernel/src/timer.o
                                                  build/kernel/src/thread.o
                                                  build/kernel/src/scheduler_up.o
                                                  build/kernel/src/scheduler_comm.o
                                                  build/kernel/src/object.o
                                                  build/kernel/src/mempool.o
                                                  build/kernel/src/mem.o
                                                  build/kernel/src/ipc.o
                                                  build/kernel/src/components.o
                                                  build/kernel/src/clock.o
                                                  build/kernel/components/finsh/shell.o
                                                  build/kernel/components/drivers/serial/serial.o
                                                  build/kernel/components/drivers/pin/pin.o
                                                  build/kernel/components/drivers/ipc/workqueue.o
                                                  build/kernel/components/drivers/ipc/waitqueue.o
                                                  build/kernel/components/drivers/ipc/ringbuffer.o
                                                  build/kernel/components/drivers/ipc/ringblk_buf.o
                                                  build/kernel/components/drivers/ipc/pipe.o
                                                  build/kernel/components/drivers/ipc/dataqueue.o
                                                  build/kernel/components/drivers/ipc/condvar.o
                                                  build/kernel/components/drivers/ipc/completion_up.o
                                                  build/kernel/components/drivers/cputime/cputimer.o
                                                  build/kernel/components/drivers/cputime/cputime.o
                                                  build/kernel/components/drivers/core/device.o
rt_assert_hook                                    build/kernel/src/kservice.o
rt_assert_set_hook                                build/kernel/src/kservice.o
rt_backtrace                                      build/kernel/src/kservice.o
rt_backtrace_formatted_print                      build/kernel/src/kservice.o
rt_backtrace_frame                                build/kernel/src/kservice.o
rt_backtrace_thread                               build/kernel/src/kservice.o
rt_backtrace_to_buffer                            build/kernel/src/kservice.o
rt_calloc                                         build/kernel/src/kservice.o
                                                  build/kernel/components/finsh/shell.o
                                                  build/kernel/components/libc/compilers/newlib/syscalls.o
rt_completion_done                                build/kernel/components/drivers/ipc/completion_comm.o
                                                  build/kernel/components/drivers/serial/serial.o
rt_completion_init                                build/kernel/components/drivers/ipc/completion_up.o
                                                  build/kernel/components/drivers/serial/serial.o
rt_completion_wait                                build/kernel/components/drivers/ipc/completion_comm.o
                                                  build/kernel/components/drivers/serial/serial.o
rt_completion_wait_flags                          build/kernel/components/drivers/ipc/completion_up.o
                                                  build/kernel/components/drivers/ipc/completion_comm.o
rt_completion_wakeup                              build/kernel/components/drivers/ipc/completion_comm.o
rt_completion_wakeup_by_errno                     build/kernel/components/drivers/ipc/completion_up.o
                                                  build/kernel/components/drivers/ipc/completion_comm.o
rt_components_board_init                          build/kernel/src/components.o
                                                  build/board/board.o
rt_components_init                                build/kernel/src/components.o
rt_condvar_broadcast                              build/kernel/components/drivers/ipc/condvar.o
rt_condvar_init                                   build/kernel/components/drivers/ipc/condvar.o
                                                  build/kernel/components/drivers/ipc/pipe.o
rt_condvar_signal                                 build/kernel/components/drivers/ipc/condvar.o
rt_condvar_timedwait                              build/kernel/components/drivers/ipc/condvar.o
rt_console_get_device                             build/kernel/src/kservice.o
                                                  build/kernel/components/finsh/shell.o
                                                  build/kernel/components/libc/compilers/newlib/syscalls.o
rt_console_set_device                             build/kernel/src/kservice.o
                                                  build/board/board.o
rt_cpu_index                                      build/kernel/src/cpu_up.o
                                                  build/kernel/src/idle.o
rt_cpu_self                                       build/kernel/src/cpu_up.o
                                                  build/kernel/src/thread.o
                                                  build/kernel/src/scheduler_up.o
rt_cputime_mdelay                                 build/kernel/components/drivers/cputime/cputimer.o
rt_cputime_ndelay                                 build/kernel/components/drivers/cputime/cputimer.o
rt_cputime_sleep                                  build/kernel/components/drivers/cputime/cputimer.o
rt_cputime_udelay                                 build/kernel/components/drivers/cputime/cputimer.o
rt_cputimer_control                               build/kernel/components/drivers/cputime/cputimer.o
rt_cputimer_delete                                build/kernel/components/drivers/cputime/cputimer.o
rt_cputimer_detach                                build/kernel/components/drivers/cputime/cputimer.o
rt_cputimer_init                                  build/kernel/components/drivers/cputime/cputimer.o
rt_cputimer_start                                 build/kernel/components/drivers/cputime/cputimer.o
rt_cputimer_stop                                  build/kernel/components/drivers/cputime/cputimer.o
rt_critical_level                                 build/kernel/src/scheduler_up.o
                                                  build/kernel/src/thread.o
                                                  build/kernel/src/ipc.o
                                                  build/kernel/components/drivers/ipc/waitqueue.o
                                                  build/kernel/components/drivers/ipc/dataqueue.o
                                                  build/kernel/components/drivers/ipc/condvar.o
                                                  build/kernel/components/drivers/ipc/completion_up.o
rt_current_priority                               build/kernel/src/scheduler_up.o
rt_custom_object_create                           build/kernel/src/object.o
rt_custom_object_destroy                          build/kernel/src/object.o
rt_data_queue_deinit                              build/kernel/components/drivers/ipc/dataqueue.o
                                                  build/kernel/components/drivers/serial/serial.o
rt_data_queue_init                                build/kernel/components/drivers/ipc/dataqueue.o
                                                  build/kernel/components/drivers/serial/serial.o
rt_data_queue_len                                 build/kernel/components/drivers/ipc/dataqueue.o
rt_data_queue_peek                                build/kernel/components/drivers/ipc/dataqueue.o
                                                  build/kernel/components/drivers/serial/serial.o
rt_data_queue_pop                                 build/kernel/components/drivers/ipc/dataqueue.o
                                                  build/kernel/components/drivers/serial/serial.o
rt_data_queue_push                                build/kernel/components/drivers/ipc/dataqueue.o
                                                  build/kernel/components/drivers/serial/serial.o
rt_data_queue_reset                               build/kernel/components/drivers/ipc/dataqueue.o
rt_device_close                                   build/kernel/components/drivers/core/device.o
                                                  build/kernel/src/kservice.o
                                                  build/kernel/components/finsh/shell.o
rt_device_control                                 build/kernel/components/drivers/core/device.o
rt_device_create                                  build/kernel/components/drivers/core/device.o
rt_device_destroy                                 build/kernel/components/drivers/core/device.o
rt_device_find                                    build/kernel/components/drivers/core/device.o
                                                  build/kernel/src/kservice.o
                                                  build/kernel/components/finsh/shell.o
                                                  build/kernel/components/drivers/ipc/pipe.o
rt_device_init                                    build/kernel/components/drivers/core/device.o
rt_device_open                                    build/kernel/components/drivers/core/device.o
                                                  build/kernel/src/kservice.o
                                                  build/kernel/components/finsh/shell.o
rt_device_pin_register                            build/kernel/components/drivers/pin/pin.o
rt_device_read                                    build/kernel/components/drivers/core/device.o
                                                  build/kernel/components/finsh/shell.o
rt_device_register                                build/kernel/components/drivers/core/device.o
                                                  build/kernel/components/drivers/serial/serial.o
                                                  build/kernel/components/drivers/pin/pin.o
                                                  build/kernel/components/drivers/ipc/pipe.o
rt_device_set_rx_indicate                         build/kernel/components/drivers/core/device.o
                                                  build/kernel/components/finsh/shell.o
rt_device_set_tx_complete                         build/kernel/components/drivers/core/device.o
rt_device_unregister                              build/kernel/components/drivers/core/device.o
                                                  build/kernel/components/drivers/ipc/pipe.o
rt_device_write                                   build/kernel/components/drivers/core/device.o
                                                  build/kernel/src/kservice.o
                                                  build/kernel/components/libc/compilers/newlib/syscalls.o
rt_enter_critical                                 build/kernel/src/scheduler_up.o
                                                  build/kernel/src/thread.o
                                                  build/kernel/src/cpu_up.o
                                                  build/kernel/components/drivers/ipc/workqueue.o
                                                  build/kernel/components/drivers/ipc/dataqueue.o
                                                  build/kernel/components/drivers/ipc/condvar.o
rt_event_control                                  build/kernel/src/ipc.o
rt_event_create                                   build/kernel/src/ipc.o
rt_event_delete                                   build/kernel/src/ipc.o
rt_event_detach                                   build/kernel/src/ipc.o
rt_event_init                                     build/kernel/src/ipc.o
rt_event_recv                                     build/kernel/src/ipc.o
rt_event_recv_interruptible                       build/kernel/src/ipc.o
rt_event_recv_killable                            build/kernel/src/ipc.o
rt_event_send                                     build/kernel/src/ipc.o
rt_exit_critical                                  build/kernel/src/scheduler_up.o
                                                  build/kernel/components/drivers/ipc/workqueue.o
                                                  build/kernel/components/drivers/ipc/dataqueue.o
                                                  build/kernel/components/drivers/ipc/condvar.o
rt_exit_critical_safe                             build/kernel/src/scheduler_up.o
                                                  build/kernel/src/thread.o
                                                  build/kernel/src/cpu_up.o
rt_free                                           build/kernel/src/kservice.o
                                                  build/kernel/src/object.o
                                                  build/kernel/src/mempool.o
                                                  build/kernel/src/ipc.o
                                                  build/kernel/src/idle.o
                                                  build/kernel/components/finsh/shell.o
                                                  build/kernel/components/drivers/serial/serial.o
                                                  build/kernel/components/drivers/ipc/workqueue.o
                                                  build/kernel/components/drivers/ipc/ringbuffer.o
                                                  build/kernel/components/drivers/ipc/ringblk_buf.o
                                                  build/kernel/components/drivers/ipc/pipe.o
                                                  build/kernel/components/drivers/ipc/dataqueue.o
                                                  build/kernel/components/drivers/core/device.o
                                                  build/kernel/components/libc/compilers/newlib/syscalls.o
rt_free_align                                     build/kernel/src/kservice.o
rt_free_sethook                                   build/kernel/src/kservice.o
rt_get_errno                                      build/kernel/src/klibc/kstdio.o
                                                  build/kernel/components/drivers/ipc/condvar.o
rt_hw_backtrace_frame_get                         build/kernel/src/kservice.o
rt_hw_backtrace_frame_unwind                      build/kernel/src/kservice.o
rt_hw_board_init                                  build/board/board.o
                                                  build/kernel/src/components.o
rt_hw_console_output                              build/kernel/src/kservice.o
rt_hw_context_switch                              build/kernel/libcpu/risc-v/common/context_gcc.o
                                                  build/kernel/src/scheduler_up.o
rt_hw_context_switch_exit                         build/kernel/libcpu/risc-v/common/context_gcc.o
                                                  build/kernel/libcpu/risc-v/common/interrupt_gcc.o
rt_hw_context_switch_interrupt                    build/kernel/libcpu/risc-v/common/cpuport.o
                                                  build/kernel/src/scheduler_up.o
rt_hw_context_switch_to                           build/kernel/libcpu/risc-v/common/context_gcc.o
                                                  build/kernel/src/scheduler_up.o
rt_hw_cpu_arch                                    build/kernel/src/kservice.o
rt_hw_cpu_reset                                   build/kernel/src/kservice.o
rt_hw_cpu_shutdown                                build/kernel/src/kservice.o
rt_hw_do_after_save_above                         build/kernel/libcpu/risc-v/common/cpuport.o
                                                  build/kernel/libcpu/risc-v/common/interrupt_gcc.o
rt_hw_interrupt_disable                           build/kernel/libcpu/risc-v/common/context_gcc.o
                                                  build/kernel/src/scheduler_up.o
                                                  build/kernel/src/kservice.o
                                                  build/kernel/src/irq.o
                                                  build/kernel/src/idle.o
                                                  build/kernel/src/cpu_up.o
                                                  build/kernel/src/components.o
                                                  build/kernel/src/clock.o
                                                  build/kernel/components/drivers/ipc/condvar.o
                                                  build/kernel/components/drivers/cputime/cputimer.o
                                                  build/kernel/libcpu/risc-v/rv64/trap.o
rt_hw_interrupt_enable                            build/kernel/libcpu/risc-v/common/context_gcc.o
                                                  build/kernel/src/scheduler_up.o
                                                  build/kernel/src/irq.o
                                                  build/kernel/src/idle.o
                                                  build/kernel/src/cpu_up.o
                                                  build/kernel/src/clock.o
                                                  build/kernel/components/drivers/ipc/condvar.o
                                                  build/kernel/components/drivers/cputime/cputimer.o
rt_hw_interrupt_handle                            build/kernel/libcpu/risc-v/common/trap_common.o
rt_hw_interrupt_init                              build/board/interrupt.o
                                                  build/kernel/libcpu/risc-v/common/trap_common.o
                                                  build/board/board.o
rt_hw_interrupt_install                           build/board/interrupt.o
                                                  build/kernel/libcpu/risc-v/common/trap_common.o
                                                  build/board/board_uart.o
rt_hw_interrupt_is_disabled                       build/kernel/src/irq.o
rt_hw_interrupt_mask                              build/board/interrupt.o
rt_hw_interrupt_umask                             build/board/interrupt.o
                                                  build/board/board_uart.o
rt_hw_irq_isr                                     build/board/interrupt.o
                                                  build/kernel/libcpu/risc-v/rv64/trap.o
rt_hw_isb                                         build/kernel/libcpu/risc-v/rv64/cpuport.o
rt_hw_serial_isr                                  build/kernel/components/drivers/serial/serial.o
rt_hw_serial_register                             build/kernel/components/drivers/serial/serial.o
                                                  build/board/board_uart.o
rt_hw_soft_irq_isr                                build/kernel/libcpu/risc-v/rv64/trap.o
rt_hw_stack_init                                  build/kernel/libcpu/risc-v/common/cpuport.o
                                                  build/kernel/src/thread.o
rt_hw_tick_init                                   build/board/tick.o
                                                  build/board/board.o
rt_hw_tick_isr                                    build/board/tick.o
                                                  build/board/irq.o
                                                  build/kernel/libcpu/risc-v/rv64/trap.o
rt_hw_uart_init                                   build/board/board_uart.o
                                                  build/board/board.o
rt_hw_us_delay                                    build/kernel/src/kservice.o
rt_interrupt_enter                                build/kernel/src/irq.o
                                                  build/board/irq.o
                                                  build/board/interrupt.o
                                                  build/kernel/libcpu/risc-v/common/interrupt_gcc.o
rt_interrupt_enter_sethook                        build/kernel/src/irq.o
rt_interrupt_from_thread                          build/kernel/libcpu/risc-v/common/cpuport.o
                                                  build/board/interrupt.o
                                                  build/kernel/libcpu/risc-v/common/interrupt_gcc.o
rt_interrupt_get_nest                             build/kernel/src/irq.o
                                                  build/kernel/src/timer.o
                                                  build/kernel/src/thread.o
                                                  build/kernel/src/object.o
                                                  build/kernel/src/mempool.o
                                                  build/kernel/src/klibc/kstdio.o
                                                  build/kernel/src/ipc.o
                                                  build/kernel/src/clock.o
                                                  build/kernel/components/drivers/ipc/waitqueue.o
                                                  build/kernel/components/drivers/ipc/dataqueue.o
                                                  build/kernel/components/drivers/ipc/condvar.o
                                                  build/kernel/components/drivers/ipc/completion_up.o
rt_interrupt_leave                                build/kernel/src/irq.o
                                                  build/board/irq.o
                                                  build/board/interrupt.o
                                                  build/kernel/libcpu/risc-v/common/interrupt_gcc.o
rt_interrupt_leave_sethook                        build/kernel/src/irq.o
rt_interrupt_nest                                 build/kernel/src/irq.o
                                                  build/kernel/src/scheduler_up.o
                                                  build/board/interrupt.o
rt_interrupt_to_thread                            build/kernel/libcpu/risc-v/common/cpuport.o
                                                  build/board/interrupt.o
                                                  build/kernel/libcpu/risc-v/common/interrupt_gcc.o
rt_kprintf                                        build/kernel/src/kservice.o
                                                  build/kernel/src/thread.o
                                                  build/kernel/src/scheduler_comm.o
                                                  build/kernel/src/object.o
                                                  build/kernel/src/mempool.o
                                                  build/kernel/src/mem.o
                                                  build/kernel/src/ipc.o
                                                  build/kernel/components/finsh/shell.o
                                                  build/kernel/components/finsh/msh.o
                                                  build/kernel/components/finsh/cmd.o
                                                  build/kernel/components/drivers/serial/serial.o
                                                  build/kernel/components/drivers/pin/pin.o
                                                  build/kernel/components/drivers/ipc/waitqueue.o
                                                  build/kernel/components/drivers/ipc/dataqueue.o
                                                  build/kernel/components/drivers/ipc/condvar.o
                                                  build/kernel/components/drivers/ipc/completion_up.o
                                                  build/kernel/components/drivers/core/device.o
                                                  build/board/tick.o
                                                  build/board/interrupt.o
                                                  build/board/board_uart.o
                                                  build/board/board.o
                                                  build/applications/main.o
                                                  build/kernel/libcpu/risc-v/rv64/trap.o
                                                  build/kernel/libcpu/risc-v/common/trap_common.o
                                                  build/kernel/components/libc/compilers/newlib/syscalls.o
                                                  build/kernel/components/libc/compilers/common/ctime.o
                                                  build/kernel/components/libc/compilers/common/cstdlib.o
rt_kputs                                          build/kernel/src/kservice.o
rt_malloc                                         build/kernel/src/kservice.o
                                                  build/kernel/src/thread.o
                                                  build/kernel/src/object.o
                                                  build/kernel/src/mempool.o
                                                  build/kernel/src/klibc/kstring.o
                                                  build/kernel/src/ipc.o
                                                  build/kernel/components/finsh/shell.o
                                                  build/kernel/components/drivers/serial/serial.o
                                                  build/kernel/components/drivers/ipc/workqueue.o
                                                  build/kernel/components/drivers/ipc/ringbuffer.o
                                                  build/kernel/components/drivers/ipc/ringblk_buf.o
                                                  build/kernel/components/drivers/ipc/pipe.o
                                                  build/kernel/components/drivers/ipc/dataqueue.o
                                                  build/kernel/components/drivers/core/device.o
                                                  build/kernel/components/libc/compilers/newlib/syscalls.o
rt_malloc_align                                   build/kernel/src/kservice.o
rt_malloc_sethook                                 build/kernel/src/kservice.o
rt_mb_control                                     build/kernel/src/ipc.o
rt_mb_create                                      build/kernel/src/ipc.o
rt_mb_delete                                      build/kernel/src/ipc.o
rt_mb_detach                                      build/kernel/src/ipc.o
rt_mb_init                                        build/kernel/src/ipc.o
rt_mb_recv                                        build/kernel/src/ipc.o
rt_mb_recv_interruptible                          build/kernel/src/ipc.o
rt_mb_recv_killable                               build/kernel/src/ipc.o
rt_mb_send                                        build/kernel/src/ipc.o
rt_mb_send_interruptible                          build/kernel/src/ipc.o
rt_mb_send_killable                               build/kernel/src/ipc.o
rt_mb_send_wait                                   build/kernel/src/ipc.o
rt_mb_send_wait_interruptible                     build/kernel/src/ipc.o
rt_mb_send_wait_killable                          build/kernel/src/ipc.o
rt_mb_urgent                                      build/kernel/src/ipc.o
rt_memcmp                                         build/kernel/src/klibc/kstring.o
                                                  build/kernel/components/libc/compilers/common/cstring.o
rt_memcpy                                         build/kernel/src/klibc/kstring.o
                                                  build/kernel/src/mem.o
                                                  build/kernel/src/ipc.o
                                                  build/kernel/components/finsh/shell.o
                                                  build/kernel/components/finsh/cmd.o
                                                  build/kernel/components/drivers/serial/serial.o
                                                  build/kernel/components/drivers/ipc/ringbuffer.o
                                                  build/kernel/components/libc/compilers/common/cstring.o
rt_memmove                                        build/kernel/src/klibc/kstring.o
                                                  build/kernel/components/finsh/shell.o
rt_memory_info                                    build/kernel/src/kservice.o
                                                  build/kernel/components/finsh/msh.o
rt_memset                                         build/kernel/src/klibc/kstring.o
                                                  build/kernel/src/thread.o
                                                  build/kernel/src/object.o
                                                  build/kernel/src/mem.o
                                                  build/kernel/src/kservice.o
                                                  build/kernel/components/finsh/shell.o
                                                  build/kernel/components/finsh/msh.o
                                                  build/kernel/components/drivers/serial/serial.o
                                                  build/kernel/components/drivers/ipc/pipe.o
                                                  build/kernel/components/drivers/core/device.o
                                                  build/board/interrupt.o
                                                  build/kernel/components/libc/compilers/common/ctime.o
                                                  build/kernel/components/libc/compilers/common/cstring.o
rt_mp_alloc                                       build/kernel/src/mempool.o
rt_mp_alloc_sethook                               build/kernel/src/mempool.o
rt_mp_create                                      build/kernel/src/mempool.o
rt_mp_delete                                      build/kernel/src/mempool.o
rt_mp_detach                                      build/kernel/src/mempool.o
rt_mp_free                                        build/kernel/src/mempool.o
rt_mp_free_sethook                                build/kernel/src/mempool.o
rt_mp_init                                        build/kernel/src/mempool.o
rt_mq_control                                     build/kernel/src/ipc.o
rt_mq_create                                      build/kernel/src/ipc.o
rt_mq_delete                                      build/kernel/src/ipc.o
rt_mq_detach                                      build/kernel/src/ipc.o
rt_mq_init                                        build/kernel/src/ipc.o
rt_mq_recv                                        build/kernel/src/ipc.o
rt_mq_recv_interruptible                          build/kernel/src/ipc.o
rt_mq_recv_killable                               build/kernel/src/ipc.o
rt_mq_send                                        build/kernel/src/ipc.o
rt_mq_send_interruptible                          build/kernel/src/ipc.o
rt_mq_send_killable                               build/kernel/src/ipc.o
rt_mq_send_wait                                   build/kernel/src/ipc.o
rt_mq_send_wait_interruptible                     build/kernel/src/ipc.o
rt_mq_send_wait_killable                          build/kernel/src/ipc.o
rt_mq_urgent                                      build/kernel/src/ipc.o
rt_mutex_control                                  build/kernel/src/ipc.o
rt_mutex_create                                   build/kernel/src/ipc.o
rt_mutex_delete                                   build/kernel/src/ipc.o
rt_mutex_detach                                   build/kernel/src/ipc.o
                                                  build/kernel/components/drivers/ipc/pipe.o
rt_mutex_drop_thread                              build/kernel/src/ipc.o
                                                  build/kernel/src/thread.o
rt_mutex_getprioceiling                           build/kernel/src/ipc.o
rt_mutex_init                                     build/kernel/src/ipc.o
                                                  build/kernel/src/kservice.o
                                                  build/kernel/components/drivers/ipc/pipe.o
rt_mutex_release                                  build/kernel/src/ipc.o
                                                  build/kernel/src/thread.o
                                                  build/kernel/src/kservice.o
                                                  build/kernel/components/drivers/ipc/pipe.o
                                                  build/kernel/components/drivers/ipc/condvar.o
rt_mutex_setprioceiling                           build/kernel/src/ipc.o
rt_mutex_take                                     build/kernel/src/ipc.o
                                                  build/kernel/src/kservice.o
                                                  build/kernel/components/drivers/ipc/pipe.o
                                                  build/kernel/components/drivers/ipc/condvar.o
rt_mutex_take_interruptible                       build/kernel/src/ipc.o
rt_mutex_take_killable                            build/kernel/src/ipc.o
rt_mutex_trytake                                  build/kernel/src/ipc.o
rt_object_allocate                                build/kernel/src/object.o
                                                  build/kernel/src/timer.o
                                                  build/kernel/src/thread.o
                                                  build/kernel/src/mempool.o
                                                  build/kernel/src/ipc.o
rt_object_attach_sethook                          build/kernel/src/object.o
rt_object_delete                                  build/kernel/src/object.o
                                                  build/kernel/src/timer.o
                                                  build/kernel/src/thread.o
                                                  build/kernel/src/mempool.o
                                                  build/kernel/src/ipc.o
                                                  build/kernel/src/idle.o
rt_object_detach                                  build/kernel/src/object.o
                                                  build/kernel/src/timer.o
                                                  build/kernel/src/mempool.o
                                                  build/kernel/src/mem.o
                                                  build/kernel/src/ipc.o
                                                  build/kernel/src/idle.o
                                                  build/kernel/components/drivers/core/device.o
rt_object_detach_sethook                          build/kernel/src/object.o
rt_object_find                                    build/kernel/src/object.o
                                                  build/kernel/src/thread.o
                                                  build/kernel/components/drivers/core/device.o
rt_object_for_each                                build/kernel/src/object.o
rt_object_get_information                         build/kernel/src/object.o
                                                  build/kernel/components/finsh/cmd.o
rt_object_get_length                              build/kernel/src/object.o
rt_object_get_name                                build/kernel/src/object.o
                                                  build/kernel/src/thread.o
rt_object_get_pointers                            build/kernel/src/object.o
rt_object_get_type                                build/kernel/src/object.o
                                                  build/kernel/src/timer.o
                                                  build/kernel/src/thread.o
                                                  build/kernel/src/mempool.o
                                                  build/kernel/src/mem.o
                                                  build/kernel/src/kservice.o
                                                  build/kernel/src/ipc.o
                                                  build/kernel/components/drivers/core/device.o
rt_object_init                                    build/kernel/src/object.o
                                                  build/kernel/src/timer.o
                                                  build/kernel/src/thread.o
                                                  build/kernel/src/mempool.o
                                                  build/kernel/src/mem.o
                                                  build/kernel/src/ipc.o
                                                  build/kernel/components/drivers/core/device.o
rt_object_is_systemobject                         build/kernel/src/object.o
                                                  build/kernel/src/timer.o
                                                  build/kernel/src/thread.o
                                                  build/kernel/src/mempool.o
                                                  build/kernel/src/mem.o
                                                  build/kernel/src/ipc.o
                                                  build/kernel/src/idle.o
                                                  build/kernel/components/drivers/core/device.o
rt_object_put_hook                                build/kernel/src/object.o
                                                  build/kernel/src/timer.o
                                                  build/kernel/src/ipc.o
rt_object_put_sethook                             build/kernel/src/object.o
rt_object_take_hook                               build/kernel/src/object.o
                                                  build/kernel/src/timer.o
                                                  build/kernel/src/ipc.o
rt_object_take_sethook                            build/kernel/src/object.o
rt_object_trytake_hook                            build/kernel/src/object.o
                                                  build/kernel/src/ipc.o
rt_object_trytake_sethook                         build/kernel/src/object.o
rt_pin_attach_irq                                 build/kernel/components/drivers/pin/pin.o
rt_pin_detach_irq                                 build/kernel/components/drivers/pin/pin.o
rt_pin_get                                        build/kernel/components/drivers/pin/pin.o
rt_pin_irq_enable                                 build/kernel/components/drivers/pin/pin.o
rt_pin_mode                                       build/kernel/components/drivers/pin/pin.o
rt_pin_read                                       build/kernel/components/drivers/pin/pin.o
rt_pin_write                                      build/kernel/components/drivers/pin/pin.o
rt_pipe_close                                     build/kernel/components/drivers/ipc/pipe.o
rt_pipe_control                                   build/kernel/components/drivers/ipc/pipe.o
rt_pipe_create                                    build/kernel/components/drivers/ipc/pipe.o
rt_pipe_delete                                    build/kernel/components/drivers/ipc/pipe.o
rt_pipe_open                                      build/kernel/components/drivers/ipc/pipe.o
rt_pipe_read                                      build/kernel/components/drivers/ipc/pipe.o
rt_pipe_write                                     build/kernel/components/drivers/ipc/pipe.o
rt_rbb_blk_alloc                                  build/kernel/components/drivers/ipc/ringblk_buf.o
rt_rbb_blk_buf                                    build/kernel/components/drivers/ipc/ringblk_buf.o
rt_rbb_blk_free                                   build/kernel/components/drivers/ipc/ringblk_buf.o
rt_rbb_blk_get                                    build/kernel/components/drivers/ipc/ringblk_buf.o
rt_rbb_blk_put                                    build/kernel/components/drivers/ipc/ringblk_buf.o
rt_rbb_blk_queue_buf                              build/kernel/components/drivers/ipc/ringblk_buf.o
rt_rbb_blk_queue_free                             build/kernel/components/drivers/ipc/ringblk_buf.o
rt_rbb_blk_queue_get                              build/kernel/components/drivers/ipc/ringblk_buf.o
rt_rbb_blk_queue_len                              build/kernel/components/drivers/ipc/ringblk_buf.o
rt_rbb_blk_size                                   build/kernel/components/drivers/ipc/ringblk_buf.o
rt_rbb_create                                     build/kernel/components/drivers/ipc/ringblk_buf.o
rt_rbb_destroy                                    build/kernel/components/drivers/ipc/ringblk_buf.o
rt_rbb_get_buf_size                               build/kernel/components/drivers/ipc/ringblk_buf.o
rt_rbb_init                                       build/kernel/components/drivers/ipc/ringblk_buf.o
rt_rbb_next_blk_queue_len                         build/kernel/components/drivers/ipc/ringblk_buf.o
rt_realloc                                        build/kernel/src/kservice.o
                                                  build/kernel/components/libc/compilers/newlib/syscalls.o
rt_realloc_set_entry_hook                         build/kernel/src/kservice.o
rt_realloc_set_exit_hook                          build/kernel/src/kservice.o
rt_ringbuffer_create                              build/kernel/components/drivers/ipc/ringbuffer.o
                                                  build/kernel/components/drivers/ipc/pipe.o
rt_ringbuffer_data_len                            build/kernel/components/drivers/ipc/ringbuffer.o
rt_ringbuffer_destroy                             build/kernel/components/drivers/ipc/ringbuffer.o
                                                  build/kernel/components/drivers/ipc/pipe.o
rt_ringbuffer_get                                 build/kernel/components/drivers/ipc/ringbuffer.o
                                                  build/kernel/components/drivers/ipc/pipe.o
rt_ringbuffer_getchar                             build/kernel/components/drivers/ipc/ringbuffer.o
rt_ringbuffer_init                                build/kernel/components/drivers/ipc/ringbuffer.o
rt_ringbuffer_peek                                build/kernel/components/drivers/ipc/ringbuffer.o
rt_ringbuffer_put                                 build/kernel/components/drivers/ipc/ringbuffer.o
                                                  build/kernel/components/drivers/ipc/pipe.o
rt_ringbuffer_put_force                           build/kernel/components/drivers/ipc/ringbuffer.o
rt_ringbuffer_putchar                             build/kernel/components/drivers/ipc/ringbuffer.o
rt_ringbuffer_putchar_force                       build/kernel/components/drivers/ipc/ringbuffer.o
rt_ringbuffer_reset                               build/kernel/components/drivers/ipc/ringbuffer.o
rt_rv32_system_irq_handler                        build/kernel/libcpu/risc-v/common/trap_common.o
rt_sched_insert_thread                            build/kernel/src/scheduler_up.o
                                                  build/kernel/src/thread.o
                                                  build/kernel/src/scheduler_comm.o
rt_sched_lock                                     build/kernel/src/scheduler_up.o
                                                  build/kernel/src/timer.o
                                                  build/kernel/src/thread.o
                                                  build/kernel/src/scheduler_comm.o
                                                  build/kernel/src/ipc.o
rt_sched_remove_thread                            build/kernel/src/scheduler_up.o
                                                  build/kernel/src/thread.o
                                                  build/kernel/src/scheduler_comm.o
rt_sched_thread_bind_cpu                          build/kernel/src/scheduler_up.o
                                                  build/kernel/src/thread.o
rt_sched_thread_change_priority                   build/kernel/src/scheduler_comm.o
                                                  build/kernel/src/thread.o
                                                  build/kernel/src/ipc.o
rt_sched_thread_close                             build/kernel/src/scheduler_comm.o
                                                  build/kernel/src/thread.o
rt_sched_thread_get_curr_prio                     build/kernel/src/scheduler_comm.o
                                                  build/kernel/src/ipc.o
rt_sched_thread_get_init_prio                     build/kernel/src/scheduler_comm.o
                                                  build/kernel/src/ipc.o
rt_sched_thread_get_stat                          build/kernel/src/scheduler_comm.o
                                                  build/kernel/src/thread.o
rt_sched_thread_init_ctx                          build/kernel/src/scheduler_comm.o
                                                  build/kernel/src/thread.o
rt_sched_thread_init_priv                         build/kernel/src/scheduler_up.o
                                                  build/kernel/src/scheduler_comm.o
rt_sched_thread_is_suspended                      build/kernel/src/scheduler_comm.o
                                                  build/kernel/src/thread.o
                                                  build/kernel/src/ipc.o
rt_sched_thread_ready                             build/kernel/src/scheduler_comm.o
                                                  build/kernel/src/thread.o
                                                  build/kernel/src/ipc.o
rt_sched_thread_startup                           build/kernel/src/scheduler_up.o
                                                  build/kernel/src/thread.o
rt_sched_thread_timer_start                       build/kernel/src/scheduler_comm.o
                                                  build/kernel/src/timer.o
rt_sched_thread_timer_stop                        build/kernel/src/scheduler_comm.o
                                                  build/kernel/src/thread.o
rt_sched_thread_yield                             build/kernel/src/scheduler_comm.o
                                                  build/kernel/src/thread.o
rt_sched_tick_increase                            build/kernel/src/scheduler_comm.o
                                                  build/kernel/src/clock.o
rt_sched_unlock                                   build/kernel/src/scheduler_up.o
                                                  build/kernel/src/timer.o
                                                  build/kernel/src/thread.o
                                                  build/kernel/src/scheduler_comm.o
                                                  build/kernel/src/ipc.o
rt_sched_unlock_n_resched                         build/kernel/src/scheduler_up.o
                                                  build/kernel/src/thread.o
                                                  build/kernel/src/scheduler_comm.o
                                                  build/kernel/src/ipc.o
rt_schedule                                       build/kernel/src/scheduler_up.o
                                                  build/kernel/src/thread.o
                                                  build/kernel/src/mempool.o
                                                  build/kernel/src/ipc.o
                                                  build/kernel/components/drivers/ipc/workqueue.o
                                                  build/kernel/components/drivers/ipc/waitqueue.o
                                                  build/kernel/components/drivers/ipc/dataqueue.o
                                                  build/kernel/components/drivers/ipc/condvar.o
                                                  build/kernel/components/drivers/ipc/completion_up.o
rt_scheduler_sethook                              build/kernel/src/scheduler_up.o
rt_scheduler_stack_check                          build/kernel/src/scheduler_comm.o
                                                  build/kernel/src/scheduler_up.o
rt_scheduler_switch_sethook                       build/kernel/src/scheduler_up.o
rt_sem_control                                    build/kernel/src/ipc.o
                                                  build/kernel/src/timer.o
rt_sem_create                                     build/kernel/src/ipc.o
rt_sem_delete                                     build/kernel/src/ipc.o
rt_sem_detach                                     build/kernel/src/ipc.o
                                                  build/kernel/components/drivers/ipc/workqueue.o
                                                  build/kernel/components/drivers/cputime/cputimer.o
rt_sem_init                                       build/kernel/src/ipc.o
                                                  build/kernel/src/timer.o
                                                  build/kernel/components/finsh/shell.o
                                                  build/kernel/components/drivers/ipc/workqueue.o
                                                  build/kernel/components/drivers/cputime/cputimer.o
rt_sem_release                                    build/kernel/src/ipc.o
                                                  build/kernel/src/timer.o
                                                  build/kernel/components/finsh/shell.o
                                                  build/kernel/components/drivers/ipc/workqueue.o
                                                  build/kernel/components/drivers/cputime/cputimer.o
rt_sem_take                                       build/kernel/src/ipc.o
                                                  build/kernel/src/timer.o
                                                  build/kernel/components/finsh/shell.o
                                                  build/kernel/components/drivers/ipc/workqueue.o
rt_sem_take_interruptible                         build/kernel/src/ipc.o
                                                  build/kernel/components/drivers/cputime/cputimer.o
rt_sem_take_killable                              build/kernel/src/ipc.o
rt_sem_trytake                                    build/kernel/src/ipc.o
                                                  build/kernel/components/drivers/ipc/workqueue.o
rt_set_errno                                      build/kernel/src/klibc/kstdio.o
                                                  build/kernel/src/mempool.o
                                                  build/kernel/src/ipc.o
                                                  build/kernel/components/drivers/serial/serial.o
                                                  build/kernel/components/drivers/ipc/pipe.o
                                                  build/kernel/components/drivers/cputime/cputime.o
                                                  build/kernel/components/drivers/core/device.o
                                                  build/kernel/components/libc/compilers/common/cunistd.o
                                                  build/kernel/components/libc/compilers/common/ctime.o
rt_show_stack_frame                               build/kernel/libcpu/risc-v/common/trap_common.o
rt_show_version                                   build/kernel/src/kservice.o
                                                  build/kernel/src/components.o
                                                  build/kernel/components/finsh/cmd.o
rt_smem_alloc                                     build/kernel/src/mem.o
                                                  build/kernel/src/kservice.o
rt_smem_detach                                    build/kernel/src/mem.o
rt_smem_free                                      build/kernel/src/mem.o
                                                  build/kernel/src/kservice.o
rt_smem_init                                      build/kernel/src/mem.o
                                                  build/kernel/src/kservice.o
rt_smem_realloc                                   build/kernel/src/mem.o
                                                  build/kernel/src/kservice.o
rt_snprintf                                       build/kernel/src/klibc/kstdio.o
                                                  build/kernel/src/idle.o
rt_spin_lock                                      build/kernel/src/cpu_up.o
                                                  build/kernel/src/ipc.o
                                                  build/kernel/components/drivers/ipc/condvar.o
rt_spin_lock_init                                 build/kernel/src/cpu_up.o
                                                  build/kernel/src/timer.o
                                                  build/kernel/src/thread.o
                                                  build/kernel/src/mempool.o
                                                  build/kernel/src/ipc.o
                                                  build/kernel/components/drivers/serial/serial.o
                                                  build/kernel/components/drivers/ipc/workqueue.o
                                                  build/kernel/components/drivers/ipc/ringblk_buf.o
                                                  build/kernel/components/drivers/ipc/pipe.o
                                                  build/kernel/components/drivers/ipc/dataqueue.o
                                                  build/kernel/components/drivers/ipc/condvar.o
rt_spin_lock_irqsave                              build/kernel/src/cpu_up.o
                                                  build/kernel/src/timer.o
                                                  build/kernel/src/thread.o
                                                  build/kernel/src/object.o
                                                  build/kernel/src/mempool.o
                                                  build/kernel/src/ipc.o
                                                  build/kernel/src/idle.o
                                                  build/kernel/components/finsh/cmd.o
                                                  build/kernel/components/drivers/serial/serial.o
                                                  build/kernel/components/drivers/ipc/workqueue.o
                                                  build/kernel/components/drivers/ipc/waitqueue.o
                                                  build/kernel/components/drivers/ipc/ringblk_buf.o
                                                  build/kernel/components/drivers/ipc/dataqueue.o
                                                  build/kernel/components/drivers/ipc/completion_up.o
rt_spin_unlock                                    build/kernel/src/cpu_up.o
                                                  build/kernel/src/ipc.o
                                                  build/kernel/components/drivers/ipc/condvar.o
rt_spin_unlock_irqrestore                         build/kernel/src/cpu_up.o
                                                  build/kernel/src/timer.o
                                                  build/kernel/src/thread.o
                                                  build/kernel/src/object.o
                                                  build/kernel/src/mempool.o
                                                  build/kernel/src/ipc.o
                                                  build/kernel/src/idle.o
                                                  build/kernel/components/finsh/cmd.o
                                                  build/kernel/components/drivers/serial/serial.o
                                                  build/kernel/components/drivers/ipc/workqueue.o
                                                  build/kernel/components/drivers/ipc/waitqueue.o
                                                  build/kernel/components/drivers/ipc/ringblk_buf.o
                                                  build/kernel/components/drivers/ipc/dataqueue.o
                                                  build/kernel/components/drivers/ipc/completion_up.o
rt_sprintf                                        build/kernel/src/klibc/kstdio.o
rt_strcasecmp                                     build/kernel/src/klibc/kstring.o
rt_strcmp                                         build/kernel/src/klibc/kstring.o
                                                  build/kernel/components/drivers/pin/pin.o
rt_strcpy                                         build/kernel/src/klibc/kstring.o
rt_strdup                                         build/kernel/src/klibc/kstring.o
rt_strerror                                       build/kernel/src/klibc/kstdio.o
                                                  build/kernel/components/finsh/cmd.o
rt_strlen                                         build/kernel/src/klibc/kstring.o
                                                  build/kernel/src/kservice.o
                                                  build/kernel/components/finsh/shell.o
                                                  build/kernel/components/libc/compilers/common/ctime.o
                                                  build/kernel/components/libc/compilers/common/cstdlib.o
rt_strncmp                                        build/kernel/src/klibc/kstring.o
                                                  build/kernel/src/object.o
rt_strncpy                                        build/kernel/src/klibc/kstring.o
                                                  build/kernel/src/object.o
                                                  build/kernel/components/finsh/msh.o
rt_strnlen                                        build/kernel/src/klibc/kstring.o
rt_strstr                                         build/kernel/src/klibc/kstring.o
rt_susp_list_dequeue                              build/kernel/src/ipc.o
                                                  build/kernel/src/mempool.o
                                                  build/kernel/components/drivers/ipc/dataqueue.o
rt_susp_list_enqueue                              build/kernel/src/ipc.o
                                                  build/kernel/src/thread.o
rt_susp_list_print                                build/kernel/src/ipc.o
                                                  build/kernel/components/finsh/cmd.o
rt_susp_list_resume_all                           build/kernel/src/ipc.o
                                                  build/kernel/src/mempool.o
rt_susp_list_resume_all_irq                       build/kernel/src/ipc.o
                                                  build/kernel/components/drivers/ipc/dataqueue.o
rt_system_heap_init                               build/kernel/src/kservice.o
                                                  build/board/board.o
rt_system_heap_init_generic                       build/kernel/src/kservice.o
rt_system_scheduler_init                          build/kernel/src/scheduler_up.o
                                                  build/kernel/src/components.o
rt_system_scheduler_start                         build/kernel/src/scheduler_up.o
                                                  build/kernel/src/components.o
rt_system_timer_init                              build/kernel/src/timer.o
                                                  build/kernel/src/components.o
rt_system_timer_thread_init                       build/kernel/src/timer.o
                                                  build/kernel/src/components.o
rt_thread_close                                   build/kernel/src/thread.o
rt_thread_control                                 build/kernel/src/thread.o
                                                  build/kernel/components/libc/compilers/common/cstdlib.o
rt_thread_create                                  build/kernel/src/thread.o
                                                  build/kernel/src/components.o
                                                  build/kernel/components/finsh/shell.o
                                                  build/kernel/components/drivers/ipc/workqueue.o
rt_thread_defunct_dequeue                         build/kernel/src/idle.o
rt_thread_defunct_enqueue                         build/kernel/src/idle.o
                                                  build/kernel/src/thread.o
rt_thread_delay                                   build/kernel/src/thread.o
                                                  build/kernel/components/drivers/cputime/cputimer.o
rt_thread_delay_until                             build/kernel/src/thread.o
rt_thread_delete                                  build/kernel/src/thread.o
                                                  build/kernel/components/drivers/ipc/workqueue.o
rt_thread_detach                                  build/kernel/src/thread.o
rt_thread_find                                    build/kernel/src/thread.o
rt_thread_get_name                                build/kernel/src/thread.o
rt_thread_idle_delhook                            build/kernel/src/idle.o
rt_thread_idle_gethandler                         build/kernel/src/idle.o
rt_thread_idle_init                               build/kernel/src/idle.o
                                                  build/kernel/src/components.o
rt_thread_idle_sethook                            build/kernel/src/idle.o
rt_thread_init                                    build/kernel/src/thread.o
                                                  build/kernel/src/timer.o
                                                  build/kernel/src/idle.o
rt_thread_mdelay                                  build/kernel/src/thread.o
rt_thread_priority_table                          build/kernel/src/scheduler_up.o
rt_thread_ready_priority_group                    build/kernel/src/scheduler_up.o
rt_thread_resume                                  build/kernel/src/thread.o
                                                  build/kernel/components/drivers/ipc/workqueue.o
                                                  build/kernel/components/drivers/ipc/waitqueue.o
                                                  build/kernel/components/drivers/ipc/completion_up.o
rt_thread_resume_sethook                          build/kernel/src/thread.o
rt_thread_self                                    build/kernel/src/thread.o
                                                  build/kernel/src/scheduler_up.o
                                                  build/kernel/src/scheduler_comm.o
                                                  build/kernel/src/mempool.o
                                                  build/kernel/src/kservice.o
                                                  build/kernel/src/klibc/kstdio.o
                                                  build/kernel/src/ipc.o
                                                  build/kernel/components/drivers/ipc/workqueue.o
                                                  build/kernel/components/drivers/ipc/waitqueue.o
                                                  build/kernel/components/drivers/ipc/dataqueue.o
                                                  build/kernel/components/drivers/ipc/condvar.o
                                                  build/kernel/components/drivers/ipc/completion_up.o
                                                  build/kernel/libcpu/risc-v/rv64/trap.o
                                                  build/kernel/components/libc/compilers/common/cstdlib.o
rt_thread_startup                                 build/kernel/src/thread.o
                                                  build/kernel/src/timer.o
                                                  build/kernel/src/idle.o
                                                  build/kernel/src/components.o
                                                  build/kernel/components/finsh/shell.o
                                                  build/kernel/components/drivers/ipc/workqueue.o
rt_thread_suspend                                 build/kernel/src/thread.o
rt_thread_suspend_sethook                         build/kernel/src/thread.o
rt_thread_suspend_to_list                         build/kernel/src/thread.o
                                                  build/kernel/src/mempool.o
                                                  build/kernel/src/ipc.o
                                                  build/kernel/components/drivers/ipc/dataqueue.o
rt_thread_suspend_with_flag                       build/kernel/src/thread.o
                                                  build/kernel/components/drivers/ipc/workqueue.o
                                                  build/kernel/components/drivers/ipc/waitqueue.o
                                                  build/kernel/components/drivers/ipc/condvar.o
                                                  build/kernel/components/drivers/ipc/completion_up.o
rt_thread_switch_interrupt_flag                   build/kernel/libcpu/risc-v/common/cpuport.o
                                                  build/board/interrupt.o
                                                  build/kernel/libcpu/risc-v/common/interrupt_gcc.o
rt_thread_yield                                   build/kernel/src/thread.o
rt_tick_from_millisecond                          build/kernel/src/clock.o
                                                  build/kernel/src/thread.o
                                                  build/kernel/components/drivers/ipc/waitqueue.o
                                                  build/kernel/components/drivers/cputime/cputimer.o
rt_tick_get                                       build/kernel/src/clock.o
                                                  build/kernel/src/timer.o
                                                  build/kernel/src/thread.o
                                                  build/kernel/src/mempool.o
                                                  build/kernel/src/ipc.o
                                                  build/kernel/components/finsh/cmd.o
                                                  build/kernel/components/libc/compilers/common/ctime.o
rt_tick_get_millisecond                           build/kernel/src/clock.o
rt_tick_increase                                  build/kernel/src/clock.o
                                                  build/board/tick.o
rt_tick_increase_tick                             build/kernel/src/clock.o
rt_tick_set                                       build/kernel/src/clock.o
rt_tick_sethook                                   build/kernel/src/clock.o
rt_timer_check                                    build/kernel/src/timer.o
                                                  build/kernel/src/clock.o
rt_timer_control                                  build/kernel/src/timer.o
                                                  build/kernel/src/thread.o
                                                  build/kernel/src/mempool.o
                                                  build/kernel/src/ipc.o
                                                  build/kernel/components/drivers/ipc/workqueue.o
                                                  build/kernel/components/drivers/ipc/waitqueue.o
                                                  build/kernel/components/drivers/ipc/dataqueue.o
                                                  build/kernel/components/drivers/ipc/condvar.o
                                                  build/kernel/components/drivers/ipc/completion_up.o
rt_timer_create                                   build/kernel/src/timer.o
rt_timer_delete                                   build/kernel/src/timer.o
rt_timer_detach                                   build/kernel/src/timer.o
                                                  build/kernel/src/thread.o
                                                  build/kernel/components/drivers/ipc/workqueue.o
rt_timer_enter_sethook                            build/kernel/src/timer.o
rt_timer_exit_sethook                             build/kernel/src/timer.o
rt_timer_init                                     build/kernel/src/timer.o
                                                  build/kernel/src/thread.o
                                                  build/kernel/components/drivers/ipc/workqueue.o
rt_timer_next_timeout_tick                        build/kernel/src/timer.o
rt_timer_start                                    build/kernel/src/timer.o
                                                  build/kernel/src/thread.o
                                                  build/kernel/src/mempool.o
                                                  build/kernel/src/ipc.o
                                                  build/kernel/components/drivers/ipc/workqueue.o
                                                  build/kernel/components/drivers/ipc/waitqueue.o
                                                  build/kernel/components/drivers/ipc/dataqueue.o
                                                  build/kernel/components/drivers/ipc/condvar.o
                                                  build/kernel/components/drivers/ipc/completion_up.o
rt_timer_stop                                     build/kernel/src/timer.o
                                                  build/kernel/src/scheduler_comm.o
                                                  build/kernel/components/drivers/ipc/workqueue.o
rt_trigger_software_interrupt                     build/kernel/libcpu/risc-v/common/cpuport.o
rt_tz_get                                         build/kernel/components/libc/compilers/common/ctime.o
rt_tz_is_dst                                      build/kernel/components/libc/compilers/common/ctime.o
rt_tz_set                                         build/kernel/components/libc/compilers/common/ctime.o
rt_vsnprintf                                      build/kernel/src/klibc/kstdio.o
                                                  build/kernel/src/kservice.o
rt_vsprintf                                       build/kernel/src/klibc/kstdio.o
rt_work_init                                      build/kernel/components/drivers/ipc/workqueue.o
rt_workqueue_cancel_all_work                      build/kernel/components/drivers/ipc/workqueue.o
rt_workqueue_cancel_work                          build/kernel/components/drivers/ipc/workqueue.o
rt_workqueue_cancel_work_sync                     build/kernel/components/drivers/ipc/workqueue.o
rt_workqueue_create                               build/kernel/components/drivers/ipc/workqueue.o
rt_workqueue_destroy                              build/kernel/components/drivers/ipc/workqueue.o
rt_workqueue_dowork                               build/kernel/components/drivers/ipc/workqueue.o
rt_workqueue_submit_work                          build/kernel/components/drivers/ipc/workqueue.o
rt_workqueue_urgent_work                          build/kernel/components/drivers/ipc/workqueue.o
rt_wqueue_add                                     build/kernel/components/drivers/ipc/waitqueue.o
                                                  build/kernel/components/drivers/ipc/condvar.o
rt_wqueue_remove                                  build/kernel/components/drivers/ipc/waitqueue.o
                                                  build/kernel/components/drivers/ipc/condvar.o
rt_wqueue_wait                                    build/kernel/components/drivers/ipc/waitqueue.o
rt_wqueue_wait_interruptible                      build/kernel/components/drivers/ipc/waitqueue.o
rt_wqueue_wait_killable                           build/kernel/components/drivers/ipc/waitqueue.o
rt_wqueue_wakeup                                  build/kernel/components/drivers/ipc/waitqueue.o
                                                  build/kernel/components/drivers/ipc/condvar.o
rt_wqueue_wakeup_all                              build/kernel/components/drivers/ipc/waitqueue.o
                                                  build/kernel/components/drivers/ipc/condvar.o
rtthread_startup                                  build/kernel/src/components.o
section_bss_clear                                 build/board/board.o
                                                  build/board/system.o
setlocale                                         /opt/Xuantie-900-gcc-elf-newlib-x86_64-V2.8.1/bin/../lib/gcc/riscv64-unknown-elf/10.4.0/../../../../riscv64-unknown-elf/lib/rv64imafdc/lp64d/libc.a(lib_a-locale.o)
settimeofday                                      build/kernel/components/libc/compilers/common/ctime.o
shell                                             build/kernel/components/finsh/shell.o
signal                                            /opt/Xuantie-900-gcc-elf-newlib-x86_64-V2.8.1/bin/../lib/gcc/riscv64-unknown-elf/10.4.0/../../../../riscv64-unknown-elf/lib/rv64imafdc/lp64d/libc.a(lib_a-signal.o)
soc_clk_disable                                   build/board/sys_clk.o
soc_clk_enable                                    build/board/sys_clk.o
soc_dcache_clean_invalid_range                    build/board/uart.o
soc_get_coretim_freq                              build/board/sys_clk.o
                                                  build/board/tick.o
soc_get_cpu_freq                                  build/board/sys_clk.o
soc_get_cur_cpu_freq                              build/board/sys_clk.o
soc_get_timer_freq                                build/board/sys_clk.o
soc_get_uart_freq                                 build/board/sys_clk.o
                                                  build/board/uart.o
soc_irq_disable                                   build/board/irq_port.o
                                                  build/board/uart.o
soc_irq_enable                                    build/board/irq_port.o
                                                  build/board/uart.o
soc_irq_end                                       build/board/irq_port.o
                                                  build/board/irq.o
                                                  build/board/interrupt.o
soc_irq_get_irq_num                               build/board/irq_port.o
                                                  build/board/irq.o
                                                  build/board/interrupt.o
soc_irq_is_enabled                                build/board/irq_port.o
soc_irq_priority                                  build/board/irq_port.o
soc_reset_uart                                    build/board/sys_clk.o
soc_set_sys_freq                                  build/board/sys_clk.o
                                                  build/board/system.o
soc_sysclk_config                                 build/board/sys_clk.o
sprintf                                           /opt/Xuantie-900-gcc-elf-newlib-x86_64-V2.8.1/bin/../lib/gcc/riscv64-unknown-elf/10.4.0/../../../../riscv64-unknown-elf/lib/rv64imafdc/lp64d/libc.a(lib_a-sprintf.o)
                                                  /opt/Xuantie-900-gcc-elf-newlib-x86_64-V2.8.1/bin/../lib/gcc/riscv64-unknown-elf/10.4.0/../../../../riscv64-unknown-elf/lib/rv64imafdc/lp64d/libc.a(lib_a-ldtoa.o)
stime                                             build/kernel/components/libc/compilers/common/ctime.o
strcasecmp                                        build/kernel/components/libc/compilers/common/cstring.o
strchr                                            /opt/Xuantie-900-gcc-elf-newlib-x86_64-V2.8.1/bin/../lib/gcc/riscv64-unknown-elf/10.4.0/../../../../riscv64-unknown-elf/lib/rv64imafdc/lp64d/libc.a(lib_a-strchr.o)
                                                  /opt/Xuantie-900-gcc-elf-newlib-x86_64-V2.8.1/bin/../lib/gcc/riscv64-unknown-elf/10.4.0/../../../../riscv64-unknown-elf/lib/rv64imafdc/lp64d/libc.a(lib_a-strrchr.o)
                                                  build/kernel/components/finsh/msh.o
                                                  build/kernel/components/libc/compilers/common/cstring.o
strchrnul                                         build/kernel/components/libc/compilers/common/cstring.o
strcmp                                            /opt/Xuantie-900-gcc-elf-newlib-x86_64-V2.8.1/bin/../lib/gcc/riscv64-unknown-elf/10.4.0/../../../../riscv64-unknown-elf/lib/rv64imafdc/lp64d/libc.a(lib_a-strcmp.o)
                                                  /opt/Xuantie-900-gcc-elf-newlib-x86_64-V2.8.1/bin/../lib/gcc/riscv64-unknown-elf/10.4.0/../../../../riscv64-unknown-elf/lib/rv64imafdc/lp64d/libc.a(lib_a-locale.o)
                                                  build/kernel/components/finsh/msh.o
strcpy                                            /opt/Xuantie-900-gcc-elf-newlib-x86_64-V2.8.1/bin/../lib/gcc/riscv64-unknown-elf/10.4.0/../../../../riscv64-unknown-elf/lib/rv64imafdc/lp64d/libc.a(lib_a-strcpy.o)
                                                  /opt/Xuantie-900-gcc-elf-newlib-x86_64-V2.8.1/bin/../lib/gcc/riscv64-unknown-elf/10.4.0/../../../../riscv64-unknown-elf/lib/rv64imafdc/lp64d/libc.a(lib_a-ldtoa.o)
                                                  build/kernel/components/finsh/shell.o
                                                  build/kernel/components/libc/compilers/common/cstring.o
strdup                                            build/kernel/components/libc/compilers/common/cstring.o
strlen                                            /opt/Xuantie-900-gcc-elf-newlib-x86_64-V2.8.1/bin/../lib/gcc/riscv64-unknown-elf/10.4.0/../../../../riscv64-unknown-elf/lib/rv64imafdc/lp64d/libc.a(lib_a-strlen.o)
                                                  /opt/Xuantie-900-gcc-elf-newlib-x86_64-V2.8.1/bin/../lib/gcc/riscv64-unknown-elf/10.4.0/../../../../riscv64-unknown-elf/lib/rv64imafdc/lp64d/libc.a(lib_a-svfiprintf.o)
                                                  /opt/Xuantie-900-gcc-elf-newlib-x86_64-V2.8.1/bin/../lib/gcc/riscv64-unknown-elf/10.4.0/../../../../riscv64-unknown-elf/lib/rv64imafdc/lp64d/libc.a(lib_a-vfiprintf.o)
                                                  /opt/Xuantie-900-gcc-elf-newlib-x86_64-V2.8.1/bin/../lib/gcc/riscv64-unknown-elf/10.4.0/../../../../riscv64-unknown-elf/lib/rv64imafdc/lp64d/libc.a(lib_a-svfprintf.o)
                                                  /opt/Xuantie-900-gcc-elf-newlib-x86_64-V2.8.1/bin/../lib/gcc/riscv64-unknown-elf/10.4.0/../../../../riscv64-unknown-elf/lib/rv64imafdc/lp64d/libc.a(lib_a-vfprintf.o)
                                                  build/kernel/components/finsh/shell.o
                                                  build/kernel/components/finsh/msh.o
                                                  build/kernel/components/libc/compilers/common/cstring.o
strncasecmp                                       build/kernel/components/libc/compilers/common/cstring.o
strncmp                                           /opt/Xuantie-900-gcc-elf-newlib-x86_64-V2.8.1/bin/../lib/gcc/riscv64-unknown-elf/10.4.0/../../../../riscv64-unknown-elf/lib/rv64imafdc/lp64d/libc.a(lib_a-strncmp.o)
                                                  build/kernel/components/finsh/msh.o
strncpy                                           /opt/Xuantie-900-gcc-elf-newlib-x86_64-V2.8.1/bin/../lib/gcc/riscv64-unknown-elf/10.4.0/../../../../riscv64-unknown-elf/lib/rv64imafdc/lp64d/libc.a(lib_a-strncpy.o)
                                                  /opt/Xuantie-900-gcc-elf-newlib-x86_64-V2.8.1/bin/../lib/gcc/riscv64-unknown-elf/10.4.0/../../../../riscv64-unknown-elf/lib/rv64imafdc/lp64d/libc.a(lib_a-svfiprintf.o)
                                                  /opt/Xuantie-900-gcc-elf-newlib-x86_64-V2.8.1/bin/../lib/gcc/riscv64-unknown-elf/10.4.0/../../../../riscv64-unknown-elf/lib/rv64imafdc/lp64d/libc.a(lib_a-vfiprintf.o)
                                                  /opt/Xuantie-900-gcc-elf-newlib-x86_64-V2.8.1/bin/../lib/gcc/riscv64-unknown-elf/10.4.0/../../../../riscv64-unknown-elf/lib/rv64imafdc/lp64d/libc.a(lib_a-svfprintf.o)
                                                  /opt/Xuantie-900-gcc-elf-newlib-x86_64-V2.8.1/bin/../lib/gcc/riscv64-unknown-elf/10.4.0/../../../../riscv64-unknown-elf/lib/rv64imafdc/lp64d/libc.a(lib_a-vfprintf.o)
                                                  build/kernel/components/finsh/shell.o
                                                  build/kernel/components/finsh/msh.o
strndup                                           build/kernel/components/libc/compilers/common/cstring.o
strnlen                                           build/kernel/components/libc/compilers/common/cstring.o
strrchr                                           /opt/Xuantie-900-gcc-elf-newlib-x86_64-V2.8.1/bin/../lib/gcc/riscv64-unknown-elf/10.4.0/../../../../riscv64-unknown-elf/lib/rv64imafdc/lp64d/libc.a(lib_a-strrchr.o)
                                                  build/kernel/components/libc/compilers/common/cstring.o
strtok_r                                          build/kernel/components/libc/compilers/common/cstring.o
strtol                                            /opt/Xuantie-900-gcc-elf-newlib-x86_64-V2.8.1/bin/../lib/gcc/riscv64-unknown-elf/10.4.0/../../../../riscv64-unknown-elf/lib/rv64imafdc/lp64d/libc.a(lib_a-strtol.o)
                                                  /opt/Xuantie-900-gcc-elf-newlib-x86_64-V2.8.1/bin/../lib/gcc/riscv64-unknown-elf/10.4.0/../../../../riscv64-unknown-elf/lib/rv64imafdc/lp64d/libc.a(lib_a-atoi.o)
strtol_l                                          /opt/Xuantie-900-gcc-elf-newlib-x86_64-V2.8.1/bin/../lib/gcc/riscv64-unknown-elf/10.4.0/../../../../riscv64-unknown-elf/lib/rv64imafdc/lp64d/libc.a(lib_a-strtol.o)
strtoul                                           /opt/Xuantie-900-gcc-elf-newlib-x86_64-V2.8.1/bin/../lib/gcc/riscv64-unknown-elf/10.4.0/../../../../riscv64-unknown-elf/lib/rv64imafdc/lp64d/libc.a(lib_a-strtoul.o)
                                                  build/kernel/src/kservice.o
strtoul_l                                         /opt/Xuantie-900-gcc-elf-newlib-x86_64-V2.8.1/bin/../lib/gcc/riscv64-unknown-elf/10.4.0/../../../../riscv64-unknown-elf/lib/rv64imafdc/lp64d/libc.a(lib_a-strtoul.o)
system                                            build/kernel/components/libc/compilers/common/cstdlib.o
target_get                                        build/board/target_get.o
                                                  build/board/uart.o
target_get_optimal_dma_channel                    build/board/target_get.o
target_gpio_to_pin                                build/board/target_get.o
target_pin_to_channel                             build/board/target_get.o
target_pin_to_devidx                              build/board/target_get.o
time                                              build/kernel/components/libc/compilers/common/ctime.o
timegm                                            build/kernel/components/libc/compilers/common/ctime.o
toascii                                           build/kernel/components/libc/compilers/common/cctype.o
trap                                              build/board/vectors.o
trap_c                                            build/board/trap_c.o
trap_c_callback                                   build/board/trap_c.o
trap_entry                                        build/kernel/libcpu/risc-v/common/interrupt_gcc.o
uart0_dma_ch_list                                 build/board/devices.o
uart_isr                                          build/board/board_uart.o
uart_pinmap                                       build/board/devices.o
uart_rx_hs_num                                    build/board/devices.o
                                                  build/board/uart.o
uart_tx_hs_num                                    build/board/devices.o
                                                  build/board/uart.o
ultoa                                             build/kernel/components/libc/compilers/common/cstdlib.o
umask                                             build/kernel/components/libc/compilers/newlib/syscalls.o
utoa                                              build/kernel/components/libc/compilers/common/cstdlib.o
vfiprintf                                         /opt/Xuantie-900-gcc-elf-newlib-x86_64-V2.8.1/bin/../lib/gcc/riscv64-unknown-elf/10.4.0/../../../../riscv64-unknown-elf/lib/rv64imafdc/lp64d/libc.a(lib_a-vfiprintf.o)
vfprintf                                          /opt/Xuantie-900-gcc-elf-newlib-x86_64-V2.8.1/bin/../lib/gcc/riscv64-unknown-elf/10.4.0/../../../../riscv64-unknown-elf/lib/rv64imafdc/lp64d/libc.a(lib_a-vfprintf.o)
wcrtomb                                           /opt/Xuantie-900-gcc-elf-newlib-x86_64-V2.8.1/bin/../lib/gcc/riscv64-unknown-elf/10.4.0/../../../../riscv64-unknown-elf/lib/rv64imafdc/lp64d/libc.a(lib_a-wcrtomb.o)
wcswidth                                          build/kernel/components/libc/compilers/common/cwchar.o
wcwidth                                           build/kernel/components/libc/compilers/common/cwchar.o
